---
triple:          'arm64-apple-darwin'
binary-path:     '/Users/varvbar/projects/practicum/Sprint6/Theme1/main9-2'
relocations:
  - { offsetInCU: 0x4C88, offset: 0x4C88, size: 0x8, addend: 0x0, symName: __ZNSt3__124__put_character_sequenceB8ue170006IcNS_11char_traitsIcEEEERNS_13basic_ostreamIT_T0_EES7_PKS4_m, symObjAddr: 0x3B58, symBinAddr: 0x1000069E4, symSize: 0x1EC }
  - { offsetInCU: 0x6795, offset: 0x6795, size: 0x8, addend: 0x0, symName: __ZNSt3__18literals15string_literalsli1sB8ue170006EPKcm, symObjAddr: 0xC3C, symBinAddr: 0x100003AC8, symSize: 0x40 }
  - { offsetInCU: 0x6859, offset: 0x6859, size: 0x8, addend: 0x0, symName: __ZNSt3__1lsB8ue170006IcNS_11char_traitsIcEENS_9allocatorIcEEEERNS_13basic_ostreamIT_T0_EES9_RKNS_12basic_stringIS6_S7_T1_EE, symObjAddr: 0xBF0, symBinAddr: 0x100003A7C, symSize: 0x4C }
  - { offsetInCU: 0x68B1, offset: 0x68B1, size: 0x8, addend: 0x0, symName: __ZNSt3__14endlB8ue170006IcNS_11char_traitsIcEEEERNS_13basic_ostreamIT_T0_EES7_, symObjAddr: 0xCA8, symBinAddr: 0x100003B34, symSize: 0x58 }
  - { offsetInCU: 0x68F1, offset: 0x68F1, size: 0x8, addend: 0x0, symName: __ZNSt3__112__to_addressB8ue170006IP8TentacleEEPT_S4_, symObjAddr: 0x150C, symBinAddr: 0x100004398, symSize: 0x14 }
  - { offsetInCU: 0x6926, offset: 0x6926, size: 0x8, addend: 0x0, symName: __ZNSt3__13maxB8ue170006ImEERKT_S3_S3_, symObjAddr: 0x1900, symBinAddr: 0x10000478C, symSize: 0x2C }
  - { offsetInCU: 0x6969, offset: 0x6969, size: 0x8, addend: 0x0, symName: __ZNSt3__13minB8ue170006ImEERKT_S3_S3_, symObjAddr: 0x192C, symBinAddr: 0x1000047B8, symSize: 0x2C }
  - { offsetInCU: 0x6B96, offset: 0x6B96, size: 0x8, addend: 0x0, symName: __ZNSt3__13minB8ue170006ImNS_6__lessIvvEEEERKT_S5_S5_T0_, symObjAddr: 0x19B8, symBinAddr: 0x100004844, symSize: 0x54 }
  - { offsetInCU: 0x6C35, offset: 0x6C35, size: 0x8, addend: 0x0, symName: __ZNSt3__120__throw_length_errorB8ue170006EPKc, symObjAddr: 0x1A94, symBinAddr: 0x100004920, symSize: 0x64 }
  - { offsetInCU: 0x6C5F, offset: 0x6C5F, size: 0x8, addend: 0x0, symName: __ZNSt3__13maxB8ue170006ImNS_6__lessIvvEEEERKT_S5_S5_T0_, symObjAddr: 0x1BD8, symBinAddr: 0x100004A64, symSize: 0x54 }
  - { offsetInCU: 0x6CB9, offset: 0x6CB9, size: 0x8, addend: 0x0, symName: __ZNSt3__119__allocate_at_leastB8ue170006INS_9allocatorIP8TentacleEEEENS_19__allocation_resultINS_16allocator_traitsIT_E7pointerEEERS7_m, symObjAddr: 0x1D3C, symBinAddr: 0x100004BC8, symSize: 0x40 }
  - { offsetInCU: 0x6CFC, offset: 0x6CFC, size: 0x8, addend: 0x0, symName: __ZNSt3__117__libcpp_allocateB8ue170006Emm, symObjAddr: 0x1EC0, symBinAddr: 0x100004D4C, symSize: 0x60 }
  - { offsetInCU: 0x6D56, offset: 0x6D56, size: 0x8, addend: 0x0, symName: __ZNSt3__124__is_overaligned_for_newB8ue170006Em, symObjAddr: 0x1F20, symBinAddr: 0x100004DAC, symSize: 0x20 }
  - { offsetInCU: 0x6D84, offset: 0x6D84, size: 0x8, addend: 0x0, symName: __ZNSt3__121__libcpp_operator_newB8ue170006IJmSt11align_val_tEEEPvDpT_, symObjAddr: 0x1F40, symBinAddr: 0x100004DCC, symSize: 0x2C }
  - { offsetInCU: 0x6DD1, offset: 0x6DD1, size: 0x8, addend: 0x0, symName: __ZNSt3__121__libcpp_operator_newB8ue170006IJmEEEPvDpT_, symObjAddr: 0x1F6C, symBinAddr: 0x100004DF8, symSize: 0x24 }
  - { offsetInCU: 0x6E0A, offset: 0x6E0A, size: 0x8, addend: 0x0, symName: __ZNSt3__142__uninitialized_allocator_move_if_noexceptB8ue170006INS_9allocatorIP8TentacleEENS_16reverse_iteratorIPS3_EES7_S3_vEET1_RT_T0_SB_S8_, symObjAddr: 0x20AC, symBinAddr: 0x100004F38, symSize: 0x78 }
  - { offsetInCU: 0x6E87, offset: 0x6E87, size: 0x8, addend: 0x0, symName: __ZNSt3__14swapB8ue170006IPP8TentacleEENS_9enable_ifIXaasr21is_move_constructibleIT_EE5valuesr18is_move_assignableIS5_EE5valueEvE4typeERS5_S8_, symObjAddr: 0x2170, symBinAddr: 0x100004FFC, symSize: 0x3C }
  - { offsetInCU: 0x6ED8, offset: 0x6ED8, size: 0x8, addend: 0x0, symName: __ZNSt3__14moveB8ue170006INS_16reverse_iteratorIPP8TentacleEES5_EET0_T_S7_S6_, symObjAddr: 0x22A0, symBinAddr: 0x10000512C, symSize: 0x78 }
  - { offsetInCU: 0x6F32, offset: 0x6F32, size: 0x8, addend: 0x0, symName: __ZNSt3__16__moveB8ue170006INS_17_ClassicAlgPolicyENS_16reverse_iteratorIPP8TentacleEES6_S6_EENS_4pairIT0_T2_EES8_T1_S9_, symObjAddr: 0x2318, symBinAddr: 0x1000051A4, symSize: 0x64 }
  - { offsetInCU: 0x6F9E, offset: 0x6F9E, size: 0x8, addend: 0x0, symName: __ZNSt3__123__dispatch_copy_or_moveB8ue170006INS_17_ClassicAlgPolicyENS_11__move_loopIS1_EENS_14__move_trivialENS_16reverse_iteratorIPP8TentacleEES9_S9_EENS_4pairIT2_T4_EESB_T3_SC_, symObjAddr: 0x237C, symBinAddr: 0x100005208, symSize: 0x64 }
  - { offsetInCU: 0x701C, offset: 0x701C, size: 0x8, addend: 0x0, symName: __ZNSt3__121__unwrap_and_dispatchB8ue170006INS_10__overloadINS_11__move_loopINS_17_ClassicAlgPolicyEEENS_14__move_trivialEEENS_16reverse_iteratorIPP8TentacleEESB_SB_Li0EEENS_4pairIT0_T2_EESD_T1_SE_, symObjAddr: 0x23E0, symBinAddr: 0x10000526C, symSize: 0x12C }
  - { offsetInCU: 0x70AC, offset: 0x70AC, size: 0x8, addend: 0x0, symName: __ZNSt3__114__unwrap_rangeB8ue170006INS_16reverse_iteratorIPP8TentacleEES5_EENS_4pairIT0_S7_EET_S9_, symObjAddr: 0x250C, symBinAddr: 0x100005398, symSize: 0x84 }
  - { offsetInCU: 0x7227, offset: 0x7227, size: 0x8, addend: 0x0, symName: __ZNSt3__113__unwrap_iterB8ue170006INS_16reverse_iteratorIPP8TentacleEENS_18__unwrap_iter_implIS5_Lb0EEELi0EEEDTclsrT0_8__unwrapclsr3stdE7declvalIT_EEEES9_, symObjAddr: 0x2630, symBinAddr: 0x1000054BC, symSize: 0x44 }
  - { offsetInCU: 0x726B, offset: 0x726B, size: 0x8, addend: 0x0, symName: __ZNSt3__19make_pairB8ue170006INS_16reverse_iteratorIPP8TentacleEES5_EENS_4pairINS_18__unwrap_ref_decayIT_E4typeENS7_IT0_E4typeEEEOS8_OSB_, symObjAddr: 0x2674, symBinAddr: 0x100005500, symSize: 0x38 }
  - { offsetInCU: 0x72BA, offset: 0x72BA, size: 0x8, addend: 0x0, symName: __ZNSt3__114__rewrap_rangeB8ue170006INS_16reverse_iteratorIPP8TentacleEES5_EET_S6_T0_, symObjAddr: 0x26AC, symBinAddr: 0x100005538, symSize: 0x5C }
  - { offsetInCU: 0x7306, offset: 0x7306, size: 0x8, addend: 0x0, symName: __ZNSt3__113__rewrap_iterB8ue170006INS_16reverse_iteratorIPP8TentacleEES5_NS_18__unwrap_iter_implIS5_Lb0EEEEET_S8_T0_, symObjAddr: 0x2708, symBinAddr: 0x100005594, symSize: 0x74 }
  - { offsetInCU: 0x735B, offset: 0x735B, size: 0x8, addend: 0x0, symName: __ZNSt3__1neB8ue170006IPP8TentacleS3_EEbRKNS_16reverse_iteratorIT_EERKNS4_IT0_EE, symObjAddr: 0x277C, symBinAddr: 0x100005608, symSize: 0x48 }
  - { offsetInCU: 0x7459, offset: 0x7459, size: 0x8, addend: 0x0, symName: __ZNSt3__119__libcpp_deallocateB8ue170006EPvmm, symObjAddr: 0x2B74, symBinAddr: 0x100005A00, symSize: 0x60 }
  - { offsetInCU: 0x74BE, offset: 0x74BE, size: 0x8, addend: 0x0, symName: __ZNSt3__127__do_deallocate_handle_sizeB8ue170006IJSt11align_val_tEEEvPvmDpT_, symObjAddr: 0x2BD4, symBinAddr: 0x100005A60, symSize: 0x30 }
  - { offsetInCU: 0x7511, offset: 0x7511, size: 0x8, addend: 0x0, symName: __ZNSt3__127__do_deallocate_handle_sizeB8ue170006IJEEEvPvmDpT_, symObjAddr: 0x2C04, symBinAddr: 0x100005A90, symSize: 0x28 }
  - { offsetInCU: 0x754F, offset: 0x754F, size: 0x8, addend: 0x0, symName: __ZNSt3__124__libcpp_operator_deleteB8ue170006IJPvSt11align_val_tEEEvDpT_, symObjAddr: 0x2C2C, symBinAddr: 0x100005AB8, symSize: 0x2C }
  - { offsetInCU: 0x7598, offset: 0x7598, size: 0x8, addend: 0x0, symName: __ZNSt3__124__libcpp_operator_deleteB8ue170006IJPvEEEvDpT_, symObjAddr: 0x2C58, symBinAddr: 0x100005AE4, symSize: 0x24 }
  - { offsetInCU: 0x75CD, offset: 0x75CD, size: 0x8, addend: 0x0, symName: __ZNSt3__1neB8ue170006IPP8TentacleEEbRKNS_11__wrap_iterIT_EES8_, symObjAddr: 0x2E38, symBinAddr: 0x100005CC4, symSize: 0x34 }
  - { offsetInCU: 0x7610, offset: 0x7610, size: 0x8, addend: 0x0, symName: __ZNSt3__1eqB8ue170006IPP8TentacleEEbRKNS_11__wrap_iterIT_EES8_, symObjAddr: 0x2F28, symBinAddr: 0x100005DB4, symSize: 0x48 }
  - { offsetInCU: 0x7653, offset: 0x7653, size: 0x8, addend: 0x0, symName: __ZNSt3__120__throw_out_of_rangeB8ue170006EPKc, symObjAddr: 0x320C, symBinAddr: 0x100006098, symSize: 0x64 }
  - { offsetInCU: 0x767D, offset: 0x767D, size: 0x8, addend: 0x0, symName: __ZNSt3__1neB8ue170006IPKP8TentacleEEbRKNS_11__wrap_iterIT_EES9_, symObjAddr: 0x3658, symBinAddr: 0x1000064E4, symSize: 0x34 }
  - { offsetInCU: 0x76C0, offset: 0x76C0, size: 0x8, addend: 0x0, symName: __ZNSt3__1eqB8ue170006IPKP8TentacleEEbRKNS_11__wrap_iterIT_EES9_, symObjAddr: 0x37B4, symBinAddr: 0x100006640, symSize: 0x48 }
  - { offsetInCU: 0x7703, offset: 0x7703, size: 0x8, addend: 0x0, symName: __ZNSt3__116__pad_and_outputB8ue170006IcNS_11char_traitsIcEEEENS_19ostreambuf_iteratorIT_T0_EES6_PKS4_S8_S8_RNS_8ios_baseES4_, symObjAddr: 0x3DDC, symBinAddr: 0x100006C68, symSize: 0x240 }
  - { offsetInCU: 0x77D2, offset: 0x77D2, size: 0x8, addend: 0x0, symName: __ZNSt3__112__to_addressB8ue170006IcEEPT_S2_, symObjAddr: 0x424C, symBinAddr: 0x1000070D8, symSize: 0x14 }
  - { offsetInCU: 0x783A, offset: 0x783A, size: 0x8, addend: 0x0, symName: __ZNSt3__19use_facetB8ue170006INS_5ctypeIcEEEERKT_RKNS_6localeE, symObjAddr: 0x4504, symBinAddr: 0x100007390, symSize: 0x2C }
  - { offsetInCU: 0x7D07, offset: 0x7D07, size: 0x8, addend: 0x0, symName: __ZNSt3__112__to_addressB8ue170006IKcEEPT_S3_, symObjAddr: 0x459C, symBinAddr: 0x100007428, symSize: 0x14 }
  - { offsetInCU: 0x8074, offset: 0x8074, size: 0x8, addend: 0x0, symName: __ZSt28__throw_bad_array_new_lengthB8ue170006v, symObjAddr: 0x1E8C, symBinAddr: 0x100004D18, symSize: 0x34 }
  - { offsetInCU: 0x871B, offset: 0x871B, size: 0x8, addend: 0x0, symName: __ZNSt3__16vectorIP8TentacleNS_9allocatorIS2_EEE26__swap_out_circular_bufferERNS_14__split_bufferIS2_RS4_EE, symObjAddr: 0x1708, symBinAddr: 0x100004594, symSize: 0x110 }
  - { offsetInCU: 0xAB76, offset: 0xAB76, size: 0x8, addend: 0x0, symName: _main, symObjAddr: 0x0, symBinAddr: 0x100002E8C, symSize: 0x93C }
  - { offsetInCU: 0xAE2C, offset: 0xAE2C, size: 0x8, addend: 0x0, symName: __ZN7OctopusC1Ev, symObjAddr: 0x93C, symBinAddr: 0x1000037C8, symSize: 0x30 }
  - { offsetInCU: 0xAE55, offset: 0xAE55, size: 0x8, addend: 0x0, symName: __ZNK7Octopus16GetTentacleCountEv, symObjAddr: 0x96C, symBinAddr: 0x1000037F8, symSize: 0x28 }
  - { offsetInCU: 0xAE7A, offset: 0xAE7A, size: 0x8, addend: 0x0, symName: __ZN7OctopusC1Ei, symObjAddr: 0x994, symBinAddr: 0x100003820, symSize: 0x34 }
  - { offsetInCU: 0xAEB1, offset: 0xAEB1, size: 0x8, addend: 0x0, symName: __ZN7OctopusD1Ev, symObjAddr: 0x9C8, symBinAddr: 0x100003854, symSize: 0x2C }
  - { offsetInCU: 0xAEDA, offset: 0xAEDA, size: 0x8, addend: 0x0, symName: __ZN7Octopus11GetTentacleEm, symObjAddr: 0x9F4, symBinAddr: 0x100003880, symSize: 0x34 }
  - { offsetInCU: 0xAF0D, offset: 0xAF0D, size: 0x8, addend: 0x0, symName: __ZN7Octopus11AddTentacleEv, symObjAddr: 0xA28, symBinAddr: 0x1000038B4, symSize: 0x12C }
  - { offsetInCU: 0xAF4B, offset: 0xAF4B, size: 0x8, addend: 0x0, symName: __ZNK8Tentacle5GetIdEv, symObjAddr: 0xB54, symBinAddr: 0x1000039E0, symSize: 0x18 }
  - { offsetInCU: 0xAF70, offset: 0xAF70, size: 0x8, addend: 0x0, symName: __ZNK8Tentacle17GetLinkedTentacleEv, symObjAddr: 0xB6C, symBinAddr: 0x1000039F8, symSize: 0x18 }
  - { offsetInCU: 0xAF95, offset: 0xAF95, size: 0x8, addend: 0x0, symName: __ZN8Tentacle6LinkToERS_, symObjAddr: 0xB84, symBinAddr: 0x100003A10, symSize: 0x20 }
  - { offsetInCU: 0xAFC8, offset: 0xAFC8, size: 0x8, addend: 0x0, symName: __ZN8Tentacle6UnlinkEv, symObjAddr: 0xBA4, symBinAddr: 0x100003A30, symSize: 0x18 }
  - { offsetInCU: 0xAFF2, offset: 0xAFF2, size: 0x8, addend: 0x0, symName: __ZN7OctopusC1ERKS_, symObjAddr: 0xBBC, symBinAddr: 0x100003A48, symSize: 0x34 }
  - { offsetInCU: 0xB026, offset: 0xB026, size: 0x8, addend: 0x0, symName: __ZNSt3__113basic_ostreamIcNS_11char_traitsIcEEElsB8ue170006EPFRS3_S4_E, symObjAddr: 0xC7C, symBinAddr: 0x100003B08, symSize: 0x2C }
  - { offsetInCU: 0xB059, offset: 0xB059, size: 0x8, addend: 0x0, symName: __ZNK9PtrVectorI8TentacleE8GetItemsEv, symObjAddr: 0xD00, symBinAddr: 0x100003B8C, symSize: 0x14 }
  - { offsetInCU: 0xB07E, offset: 0xB07E, size: 0x8, addend: 0x0, symName: __ZNKSt3__16vectorIP8TentacleNS_9allocatorIS2_EEE4sizeB8ue170006Ev, symObjAddr: 0xD14, symBinAddr: 0x100003BA0, symSize: 0x28 }
  - { offsetInCU: 0xB0A3, offset: 0xB0A3, size: 0x8, addend: 0x0, symName: __ZN7OctopusC2Ei, symObjAddr: 0xD3C, symBinAddr: 0x100003BC8, symSize: 0x180 }
  - { offsetInCU: 0xB123, offset: 0xB123, size: 0x8, addend: 0x0, symName: __ZN9PtrVectorI8TentacleEC1Ev, symObjAddr: 0xEBC, symBinAddr: 0x100003D48, symSize: 0x2C }
  - { offsetInCU: 0xB14C, offset: 0xB14C, size: 0x8, addend: 0x0, symName: __ZN9ScopedPtrI8TentacleEC1EPS0_, symObjAddr: 0xEE8, symBinAddr: 0x100003D74, symSize: 0x34 }
  - { offsetInCU: 0xB183, offset: 0xB183, size: 0x8, addend: 0x0, symName: __ZN8TentacleC1Ei, symObjAddr: 0xF1C, symBinAddr: 0x100003DA8, symSize: 0x34 }
  - { offsetInCU: 0xB1BA, offset: 0xB1BA, size: 0x8, addend: 0x0, symName: __ZN9ScopedPtrI8TentacleED1Ev, symObjAddr: 0xF50, symBinAddr: 0x100003DDC, symSize: 0x2C }
  - { offsetInCU: 0xB1E3, offset: 0xB1E3, size: 0x8, addend: 0x0, symName: __ZN9PtrVectorI8TentacleE8GetItemsEv, symObjAddr: 0xF7C, symBinAddr: 0x100003E08, symSize: 0x14 }
  - { offsetInCU: 0xB207, offset: 0xB207, size: 0x8, addend: 0x0, symName: __ZNSt3__16vectorIP8TentacleNS_9allocatorIS2_EEE9push_backB8ue170006EOS2_, symObjAddr: 0xF90, symBinAddr: 0x100003E1C, symSize: 0x6C }
  - { offsetInCU: 0xB23D, offset: 0xB23D, size: 0x8, addend: 0x0, symName: __ZNK9ScopedPtrI8TentacleE9GetRawPtrEv, symObjAddr: 0xFFC, symBinAddr: 0x100003E88, symSize: 0x18 }
  - { offsetInCU: 0xB262, offset: 0xB262, size: 0x8, addend: 0x0, symName: __ZN9ScopedPtrI8TentacleE7ReleaseEv, symObjAddr: 0x1014, symBinAddr: 0x100003EA0, symSize: 0x24 }
  - { offsetInCU: 0xB295, offset: 0xB295, size: 0x8, addend: 0x0, symName: __ZN9PtrVectorI8TentacleED1Ev, symObjAddr: 0x1044, symBinAddr: 0x100003ED0, symSize: 0x2C }
  - { offsetInCU: 0xB2BE, offset: 0xB2BE, size: 0x8, addend: 0x0, symName: __ZN9PtrVectorI8TentacleEC2Ev, symObjAddr: 0x1070, symBinAddr: 0x100003EFC, symSize: 0x2C }
  - { offsetInCU: 0xB2E7, offset: 0xB2E7, size: 0x8, addend: 0x0, symName: __ZNSt3__16vectorIP8TentacleNS_9allocatorIS2_EEEC1B8ue170006Ev, symObjAddr: 0x109C, symBinAddr: 0x100003F28, symSize: 0x2C }
  - { offsetInCU: 0xB310, offset: 0xB310, size: 0x8, addend: 0x0, symName: __ZNSt3__16vectorIP8TentacleNS_9allocatorIS2_EEEC2B8ue170006Ev, symObjAddr: 0x10C8, symBinAddr: 0x100003F54, symSize: 0x4C }
  - { offsetInCU: 0xB343, offset: 0xB343, size: 0x8, addend: 0x0, symName: __ZNSt3__117__compressed_pairIPP8TentacleNS_9allocatorIS2_EEEC1B8ue170006IDnNS_18__default_init_tagEEEOT_OT0_, symObjAddr: 0x1114, symBinAddr: 0x100003FA0, symSize: 0x3C }
  - { offsetInCU: 0xB39A, offset: 0xB39A, size: 0x8, addend: 0x0, symName: __ZNSt3__117__compressed_pairIPP8TentacleNS_9allocatorIS2_EEEC2B8ue170006IDnNS_18__default_init_tagEEEOT_OT0_, symObjAddr: 0x1150, symBinAddr: 0x100003FDC, symSize: 0x40 }
  - { offsetInCU: 0xB3F1, offset: 0xB3F1, size: 0x8, addend: 0x0, symName: __ZNSt3__122__compressed_pair_elemIPP8TentacleLi0ELb0EEC2B8ue170006IDnvEEOT_, symObjAddr: 0x1190, symBinAddr: 0x10000401C, symSize: 0x1C }
  - { offsetInCU: 0xB432, offset: 0xB432, size: 0x8, addend: 0x0, symName: __ZNSt3__122__compressed_pair_elemINS_9allocatorIP8TentacleEELi1ELb1EEC2B8ue170006ENS_18__default_init_tagE, symObjAddr: 0x11AC, symBinAddr: 0x100004038, symSize: 0x2C }
  - { offsetInCU: 0xB466, offset: 0xB466, size: 0x8, addend: 0x0, symName: __ZNSt3__19allocatorIP8TentacleEC2B8ue170006Ev, symObjAddr: 0x11D8, symBinAddr: 0x100004064, symSize: 0x2C }
  - { offsetInCU: 0xB48F, offset: 0xB48F, size: 0x8, addend: 0x0, symName: __ZNSt3__116__non_trivial_ifILb1ENS_9allocatorIP8TentacleEEEC2B8ue170006Ev, symObjAddr: 0x1204, symBinAddr: 0x100004090, symSize: 0x14 }
  - { offsetInCU: 0xB4B8, offset: 0xB4B8, size: 0x8, addend: 0x0, symName: __ZN9ScopedPtrI8TentacleEC2EPS0_, symObjAddr: 0x1218, symBinAddr: 0x1000040A4, symSize: 0x20 }
  - { offsetInCU: 0xB4EF, offset: 0xB4EF, size: 0x8, addend: 0x0, symName: __ZN8TentacleC2Ei, symObjAddr: 0x1238, symBinAddr: 0x1000040C4, symSize: 0x24 }
  - { offsetInCU: 0xB526, offset: 0xB526, size: 0x8, addend: 0x0, symName: __ZN9ScopedPtrI8TentacleED2Ev, symObjAddr: 0x125C, symBinAddr: 0x1000040E8, symSize: 0x50 }
  - { offsetInCU: 0xB54F, offset: 0xB54F, size: 0x8, addend: 0x0, symName: __ZNSt3__16vectorIP8TentacleNS_9allocatorIS2_EEE9__end_capB8ue170006Ev, symObjAddr: 0x12AC, symBinAddr: 0x100004138, symSize: 0x28 }
  - { offsetInCU: 0xB579, offset: 0xB579, size: 0x8, addend: 0x0, symName: __ZNSt3__16vectorIP8TentacleNS_9allocatorIS2_EEE22__construct_one_at_endB8ue170006IJS2_EEEvDpOT_, symObjAddr: 0x12D4, symBinAddr: 0x100004160, symSize: 0x90 }
  - { offsetInCU: 0xB5C6, offset: 0xB5C6, size: 0x8, addend: 0x0, symName: __ZNSt3__16vectorIP8TentacleNS_9allocatorIS2_EEE21__push_back_slow_pathIS2_EEvOT_, symObjAddr: 0x1364, symBinAddr: 0x1000041F0, symSize: 0xD8 }
  - { offsetInCU: 0xB623, offset: 0xB623, size: 0x8, addend: 0x0, symName: __ZNSt3__117__compressed_pairIPP8TentacleNS_9allocatorIS2_EEE5firstB8ue170006Ev, symObjAddr: 0x143C, symBinAddr: 0x1000042C8, symSize: 0x24 }
  - { offsetInCU: 0xB648, offset: 0xB648, size: 0x8, addend: 0x0, symName: __ZNSt3__122__compressed_pair_elemIPP8TentacleLi0ELb0EE5__getB8ue170006Ev, symObjAddr: 0x1460, symBinAddr: 0x1000042EC, symSize: 0x14 }
  - { offsetInCU: 0xB686, offset: 0xB686, size: 0x8, addend: 0x0, symName: __ZNSt3__16vectorIP8TentacleNS_9allocatorIS2_EEE21_ConstructTransactionC1B8ue170006ERS5_m, symObjAddr: 0x1474, symBinAddr: 0x100004300, symSize: 0x3C }
  - { offsetInCU: 0xB6CD, offset: 0xB6CD, size: 0x8, addend: 0x0, symName: __ZNSt3__116allocator_traitsINS_9allocatorIP8TentacleEEE9constructB8ue170006IS3_JS3_EvEEvRS4_PT_DpOT0_, symObjAddr: 0x14B0, symBinAddr: 0x10000433C, symSize: 0x34 }
  - { offsetInCU: 0xB724, offset: 0xB724, size: 0x8, addend: 0x0, symName: __ZNSt3__16vectorIP8TentacleNS_9allocatorIS2_EEE7__allocB8ue170006Ev, symObjAddr: 0x14E4, symBinAddr: 0x100004370, symSize: 0x28 }
  - { offsetInCU: 0xB749, offset: 0xB749, size: 0x8, addend: 0x0, symName: __ZNSt3__16vectorIP8TentacleNS_9allocatorIS2_EEE21_ConstructTransactionD1B8ue170006Ev, symObjAddr: 0x1520, symBinAddr: 0x1000043AC, symSize: 0x2C }
  - { offsetInCU: 0xB772, offset: 0xB772, size: 0x8, addend: 0x0, symName: __ZNSt3__16vectorIP8TentacleNS_9allocatorIS2_EEE21_ConstructTransactionC2B8ue170006ERS5_m, symObjAddr: 0x154C, symBinAddr: 0x1000043D8, symSize: 0x44 }
  - { offsetInCU: 0xB7B9, offset: 0xB7B9, size: 0x8, addend: 0x0, symName: __ZNSt3__19allocatorIP8TentacleE9constructB8ue170006IS2_JS2_EEEvPT_DpOT0_, symObjAddr: 0x1590, symBinAddr: 0x10000441C, symSize: 0x28 }
  - { offsetInCU: 0xB80E, offset: 0xB80E, size: 0x8, addend: 0x0, symName: __ZNSt3__117__compressed_pairIPP8TentacleNS_9allocatorIS2_EEE6secondB8ue170006Ev, symObjAddr: 0x15B8, symBinAddr: 0x100004444, symSize: 0x24 }
  - { offsetInCU: 0xB833, offset: 0xB833, size: 0x8, addend: 0x0, symName: __ZNSt3__122__compressed_pair_elemINS_9allocatorIP8TentacleEELi1ELb1EE5__getB8ue170006Ev, symObjAddr: 0x15DC, symBinAddr: 0x100004468, symSize: 0x14 }
  - { offsetInCU: 0xB858, offset: 0xB858, size: 0x8, addend: 0x0, symName: __ZNSt3__16vectorIP8TentacleNS_9allocatorIS2_EEE21_ConstructTransactionD2B8ue170006Ev, symObjAddr: 0x15F0, symBinAddr: 0x10000447C, symSize: 0x20 }
  - { offsetInCU: 0xB880, offset: 0xB880, size: 0x8, addend: 0x0, symName: __ZNKSt3__16vectorIP8TentacleNS_9allocatorIS2_EEE11__recommendB8ue170006Em, symObjAddr: 0x1610, symBinAddr: 0x10000449C, symSize: 0xB4 }
  - { offsetInCU: 0xB8D4, offset: 0xB8D4, size: 0x8, addend: 0x0, symName: __ZNSt3__114__split_bufferIP8TentacleRNS_9allocatorIS2_EEEC1EmmS5_, symObjAddr: 0x16C4, symBinAddr: 0x100004550, symSize: 0x44 }
  - { offsetInCU: 0xB929, offset: 0xB929, size: 0x8, addend: 0x0, symName: __ZNSt3__114__split_bufferIP8TentacleRNS_9allocatorIS2_EEED1Ev, symObjAddr: 0x1818, symBinAddr: 0x1000046A4, symSize: 0x2C }
  - { offsetInCU: 0xB953, offset: 0xB953, size: 0x8, addend: 0x0, symName: __ZNKSt3__16vectorIP8TentacleNS_9allocatorIS2_EEE8max_sizeEv, symObjAddr: 0x1844, symBinAddr: 0x1000046D0, symSize: 0x60 }
  - { offsetInCU: 0xB97A, offset: 0xB97A, size: 0x8, addend: 0x0, symName: __ZNKSt3__16vectorIP8TentacleNS_9allocatorIS2_EEE20__throw_length_errorB8ue170006Ev, symObjAddr: 0x18A4, symBinAddr: 0x100004730, symSize: 0x1C }
  - { offsetInCU: 0xB99F, offset: 0xB99F, size: 0x8, addend: 0x0, symName: __ZNKSt3__16vectorIP8TentacleNS_9allocatorIS2_EEE8capacityB8ue170006Ev, symObjAddr: 0x18C0, symBinAddr: 0x10000474C, symSize: 0x40 }
  - { offsetInCU: 0xB9CE, offset: 0xB9CE, size: 0x8, addend: 0x0, symName: __ZNSt3__116allocator_traitsINS_9allocatorIP8TentacleEEE8max_sizeB8ue170006IS4_vEEmRKS4_, symObjAddr: 0x1958, symBinAddr: 0x1000047E4, symSize: 0x24 }
  - { offsetInCU: 0xB9FC, offset: 0xB9FC, size: 0x8, addend: 0x0, symName: __ZNKSt3__16vectorIP8TentacleNS_9allocatorIS2_EEE7__allocB8ue170006Ev, symObjAddr: 0x197C, symBinAddr: 0x100004808, symSize: 0x28 }
  - { offsetInCU: 0xBA21, offset: 0xBA21, size: 0x8, addend: 0x0, symName: __ZNSt3__114numeric_limitsIlE3maxB8ue170006Ev, symObjAddr: 0x19A4, symBinAddr: 0x100004830, symSize: 0x14 }
  - { offsetInCU: 0xBA49, offset: 0xBA49, size: 0x8, addend: 0x0, symName: __ZNKSt3__16__lessIvvEclB8ue170006ImmEEbRKT_RKT0_, symObjAddr: 0x1A0C, symBinAddr: 0x100004898, symSize: 0x34 }
  - { offsetInCU: 0xBA9C, offset: 0xBA9C, size: 0x8, addend: 0x0, symName: __ZNKSt3__19allocatorIP8TentacleE8max_sizeB8ue170006Ev, symObjAddr: 0x1A40, symBinAddr: 0x1000048CC, symSize: 0x14 }
  - { offsetInCU: 0xBAC1, offset: 0xBAC1, size: 0x8, addend: 0x0, symName: __ZNKSt3__117__compressed_pairIPP8TentacleNS_9allocatorIS2_EEE6secondB8ue170006Ev, symObjAddr: 0x1A54, symBinAddr: 0x1000048E0, symSize: 0x24 }
  - { offsetInCU: 0xBAE6, offset: 0xBAE6, size: 0x8, addend: 0x0, symName: __ZNKSt3__122__compressed_pair_elemINS_9allocatorIP8TentacleEELi1ELb1EE5__getB8ue170006Ev, symObjAddr: 0x1A78, symBinAddr: 0x100004904, symSize: 0x14 }
  - { offsetInCU: 0xBB0B, offset: 0xBB0B, size: 0x8, addend: 0x0, symName: __ZNSt3__123__libcpp_numeric_limitsIlLb1EE3maxB8ue170006Ev, symObjAddr: 0x1A8C, symBinAddr: 0x100004918, symSize: 0x8 }
  - { offsetInCU: 0xBB1F, offset: 0xBB1F, size: 0x8, addend: 0x0, symName: __ZNSt12length_errorC1B8ue170006EPKc, symObjAddr: 0x1AF8, symBinAddr: 0x100004984, symSize: 0x34 }
  - { offsetInCU: 0xBB56, offset: 0xBB56, size: 0x8, addend: 0x0, symName: __ZNSt12length_errorC2B8ue170006EPKc, symObjAddr: 0x1B2C, symBinAddr: 0x1000049B8, symSize: 0x4C }
  - { offsetInCU: 0xBB8D, offset: 0xBB8D, size: 0x8, addend: 0x0, symName: __ZNKSt3__16vectorIP8TentacleNS_9allocatorIS2_EEE9__end_capB8ue170006Ev, symObjAddr: 0x1B78, symBinAddr: 0x100004A04, symSize: 0x28 }
  - { offsetInCU: 0xBBB2, offset: 0xBBB2, size: 0x8, addend: 0x0, symName: __ZNKSt3__117__compressed_pairIPP8TentacleNS_9allocatorIS2_EEE5firstB8ue170006Ev, symObjAddr: 0x1BA0, symBinAddr: 0x100004A2C, symSize: 0x24 }
  - { offsetInCU: 0xBBD7, offset: 0xBBD7, size: 0x8, addend: 0x0, symName: __ZNKSt3__122__compressed_pair_elemIPP8TentacleLi0ELb0EE5__getB8ue170006Ev, symObjAddr: 0x1BC4, symBinAddr: 0x100004A50, symSize: 0x14 }
  - { offsetInCU: 0xBBFC, offset: 0xBBFC, size: 0x8, addend: 0x0, symName: __ZNSt3__114__split_bufferIP8TentacleRNS_9allocatorIS2_EEEC2EmmS5_, symObjAddr: 0x1C2C, symBinAddr: 0x100004AB8, symSize: 0xD4 }
  - { offsetInCU: 0xBC6E, offset: 0xBC6E, size: 0x8, addend: 0x0, symName: __ZNSt3__117__compressed_pairIPP8TentacleRNS_9allocatorIS2_EEEC1B8ue170006IDnS6_EEOT_OT0_, symObjAddr: 0x1D00, symBinAddr: 0x100004B8C, symSize: 0x3C }
  - { offsetInCU: 0xBCC5, offset: 0xBCC5, size: 0x8, addend: 0x0, symName: __ZNSt3__114__split_bufferIP8TentacleRNS_9allocatorIS2_EEE7__allocB8ue170006Ev, symObjAddr: 0x1D7C, symBinAddr: 0x100004C08, symSize: 0x28 }
  - { offsetInCU: 0xBCEA, offset: 0xBCEA, size: 0x8, addend: 0x0, symName: __ZNSt3__114__split_bufferIP8TentacleRNS_9allocatorIS2_EEE9__end_capB8ue170006Ev, symObjAddr: 0x1DA4, symBinAddr: 0x100004C30, symSize: 0x28 }
  - { offsetInCU: 0xBD0F, offset: 0xBD0F, size: 0x8, addend: 0x0, symName: __ZNSt3__117__compressed_pairIPP8TentacleRNS_9allocatorIS2_EEEC2B8ue170006IDnS6_EEOT_OT0_, symObjAddr: 0x1DCC, symBinAddr: 0x100004C58, symSize: 0x48 }
  - { offsetInCU: 0xBD66, offset: 0xBD66, size: 0x8, addend: 0x0, symName: __ZNSt3__122__compressed_pair_elemIRNS_9allocatorIP8TentacleEELi1ELb0EEC2B8ue170006IS5_vEEOT_, symObjAddr: 0x1E14, symBinAddr: 0x100004CA0, symSize: 0x20 }
  - { offsetInCU: 0xBDA7, offset: 0xBDA7, size: 0x8, addend: 0x0, symName: __ZNSt3__19allocatorIP8TentacleE8allocateB8ue170006Em, symObjAddr: 0x1E34, symBinAddr: 0x100004CC0, symSize: 0x58 }
  - { offsetInCU: 0xBDDA, offset: 0xBDDA, size: 0x8, addend: 0x0, symName: __ZNSt3__117__compressed_pairIPP8TentacleRNS_9allocatorIS2_EEE6secondB8ue170006Ev, symObjAddr: 0x1F90, symBinAddr: 0x100004E1C, symSize: 0x28 }
  - { offsetInCU: 0xBDFF, offset: 0xBDFF, size: 0x8, addend: 0x0, symName: __ZNSt3__122__compressed_pair_elemIRNS_9allocatorIP8TentacleEELi1ELb0EE5__getB8ue170006Ev, symObjAddr: 0x1FB8, symBinAddr: 0x100004E44, symSize: 0x18 }
  - { offsetInCU: 0xBE24, offset: 0xBE24, size: 0x8, addend: 0x0, symName: __ZNSt3__117__compressed_pairIPP8TentacleRNS_9allocatorIS2_EEE5firstB8ue170006Ev, symObjAddr: 0x1FD0, symBinAddr: 0x100004E5C, symSize: 0x24 }
  - { offsetInCU: 0xBE49, offset: 0xBE49, size: 0x8, addend: 0x0, symName: __ZNKSt3__16vectorIP8TentacleNS_9allocatorIS2_EEE17__annotate_deleteB8ue170006Ev, symObjAddr: 0x1FF4, symBinAddr: 0x100004E80, symSize: 0xB8 }
  - { offsetInCU: 0xBE6E, offset: 0xBE6E, size: 0x8, addend: 0x0, symName: __ZNSt3__116reverse_iteratorIPP8TentacleEC1B8ue170006ES3_, symObjAddr: 0x2124, symBinAddr: 0x100004FB0, symSize: 0x34 }
  - { offsetInCU: 0xBEA5, offset: 0xBEA5, size: 0x8, addend: 0x0, symName: __ZNKSt3__116reverse_iteratorIPP8TentacleE4baseB8ue170006Ev, symObjAddr: 0x2158, symBinAddr: 0x100004FE4, symSize: 0x18 }
  - { offsetInCU: 0xBECA, offset: 0xBECA, size: 0x8, addend: 0x0, symName: __ZNKSt3__16vectorIP8TentacleNS_9allocatorIS2_EEE14__annotate_newB8ue170006Em, symObjAddr: 0x21AC, symBinAddr: 0x100005038, symSize: 0xAC }
  - { offsetInCU: 0xBEFE, offset: 0xBEFE, size: 0x8, addend: 0x0, symName: __ZNKSt3__16vectorIP8TentacleNS_9allocatorIS2_EEE31__annotate_contiguous_containerB8ue170006EPKvS7_S7_S7_, symObjAddr: 0x2258, symBinAddr: 0x1000050E4, symSize: 0x20 }
  - { offsetInCU: 0xBF4F, offset: 0xBF4F, size: 0x8, addend: 0x0, symName: __ZNKSt3__16vectorIP8TentacleNS_9allocatorIS2_EEE4dataB8ue170006Ev, symObjAddr: 0x2278, symBinAddr: 0x100005104, symSize: 0x28 }
  - { offsetInCU: 0xBF97, offset: 0xBF97, size: 0x8, addend: 0x0, symName: __ZNKSt3__111__move_loopINS_17_ClassicAlgPolicyEEclB8ue170006INS_16reverse_iteratorIPP8TentacleEES8_S8_EENS_4pairIT_T1_EESA_T0_SB_, symObjAddr: 0x2590, symBinAddr: 0x10000541C, symSize: 0xA0 }
  - { offsetInCU: 0xC001, offset: 0xC001, size: 0x8, addend: 0x0, symName: __ZNSt3__18_IterOpsINS_17_ClassicAlgPolicyEE11__iter_moveB8ue170006IRNS_16reverse_iteratorIPP8TentacleEEEENS_9enable_ifIXsr12is_referenceIDTdeclsr3stdE7declvalIRT_EEEEE5valueEDTclsr3stdE4movedeclsr3stdE7declvalISC_EEEEE4typeEOSB_, symObjAddr: 0x27C4, symBinAddr: 0x100005650, symSize: 0x28 }
  - { offsetInCU: 0xC02D, offset: 0xC02D, size: 0x8, addend: 0x0, symName: __ZNKSt3__116reverse_iteratorIPP8TentacleEdeB8ue170006Ev, symObjAddr: 0x27EC, symBinAddr: 0x100005678, symSize: 0x28 }
  - { offsetInCU: 0xC060, offset: 0xC060, size: 0x8, addend: 0x0, symName: __ZNSt3__116reverse_iteratorIPP8TentacleEppB8ue170006Ev, symObjAddr: 0x2814, symBinAddr: 0x1000056A0, symSize: 0x20 }
  - { offsetInCU: 0xC085, offset: 0xC085, size: 0x8, addend: 0x0, symName: __ZNSt3__18_IterOpsINS_17_ClassicAlgPolicyEE25__validate_iter_referenceB8ue170006IRNS_16reverse_iteratorIPP8TentacleEEEEvv, symObjAddr: 0x2834, symBinAddr: 0x1000056C0, symSize: 0x4 }
  - { offsetInCU: 0xC0A3, offset: 0xC0A3, size: 0x8, addend: 0x0, symName: __ZNSt3__118__unwrap_iter_implINS_16reverse_iteratorIPP8TentacleEELb0EE8__unwrapB8ue170006ES5_, symObjAddr: 0x2838, symBinAddr: 0x1000056C4, symSize: 0x24 }
  - { offsetInCU: 0xC0CB, offset: 0xC0CB, size: 0x8, addend: 0x0, symName: __ZNSt3__14pairINS_16reverse_iteratorIPP8TentacleEES5_EC1B8ue170006IS5_S5_LPv0EEEOT_OT0_, symObjAddr: 0x285C, symBinAddr: 0x1000056E8, symSize: 0x3C }
  - { offsetInCU: 0xC128, offset: 0xC128, size: 0x8, addend: 0x0, symName: __ZNSt3__14pairINS_16reverse_iteratorIPP8TentacleEES5_EC2B8ue170006IS5_S5_LPv0EEEOT_OT0_, symObjAddr: 0x2898, symBinAddr: 0x100005724, symSize: 0x34 }
  - { offsetInCU: 0xC185, offset: 0xC185, size: 0x8, addend: 0x0, symName: __ZNSt3__118__unwrap_iter_implINS_16reverse_iteratorIPP8TentacleEELb0EE8__rewrapB8ue170006ES5_S5_, symObjAddr: 0x28CC, symBinAddr: 0x100005758, symSize: 0x2C }
  - { offsetInCU: 0xC1B3, offset: 0xC1B3, size: 0x8, addend: 0x0, symName: __ZNSt3__116reverse_iteratorIPP8TentacleEC2B8ue170006ES3_, symObjAddr: 0x28F8, symBinAddr: 0x100005784, symSize: 0x28 }
  - { offsetInCU: 0xC1EA, offset: 0xC1EA, size: 0x8, addend: 0x0, symName: __ZNSt3__114__split_bufferIP8TentacleRNS_9allocatorIS2_EEED2Ev, symObjAddr: 0x2920, symBinAddr: 0x1000057AC, symSize: 0x8C }
  - { offsetInCU: 0xC215, offset: 0xC215, size: 0x8, addend: 0x0, symName: __ZNSt3__114__split_bufferIP8TentacleRNS_9allocatorIS2_EEE5clearB8ue170006Ev, symObjAddr: 0x29AC, symBinAddr: 0x100005838, symSize: 0x28 }
  - { offsetInCU: 0xC23A, offset: 0xC23A, size: 0x8, addend: 0x0, symName: __ZNSt3__116allocator_traitsINS_9allocatorIP8TentacleEEE10deallocateB8ue170006ERS4_PS3_m, symObjAddr: 0x29D4, symBinAddr: 0x100005860, symSize: 0x34 }
  - { offsetInCU: 0xC27C, offset: 0xC27C, size: 0x8, addend: 0x0, symName: __ZNKSt3__114__split_bufferIP8TentacleRNS_9allocatorIS2_EEE8capacityB8ue170006Ev, symObjAddr: 0x2A08, symBinAddr: 0x100005894, symSize: 0x40 }
  - { offsetInCU: 0xC2A1, offset: 0xC2A1, size: 0x8, addend: 0x0, symName: __ZNSt3__114__split_bufferIP8TentacleRNS_9allocatorIS2_EEE17__destruct_at_endB8ue170006EPS2_, symObjAddr: 0x2A48, symBinAddr: 0x1000058D4, symSize: 0x2C }
  - { offsetInCU: 0xC2D3, offset: 0xC2D3, size: 0x8, addend: 0x0, symName: __ZNSt3__114__split_bufferIP8TentacleRNS_9allocatorIS2_EEE17__destruct_at_endB8ue170006EPS2_NS_17integral_constantIbLb0EEE, symObjAddr: 0x2A74, symBinAddr: 0x100005900, symSize: 0x80 }
  - { offsetInCU: 0xC313, offset: 0xC313, size: 0x8, addend: 0x0, symName: __ZNSt3__116allocator_traitsINS_9allocatorIP8TentacleEEE7destroyB8ue170006IS3_vEEvRS4_PT_, symObjAddr: 0x2AF4, symBinAddr: 0x100005980, symSize: 0x2C }
  - { offsetInCU: 0xC350, offset: 0xC350, size: 0x8, addend: 0x0, symName: __ZNSt3__19allocatorIP8TentacleE7destroyB8ue170006EPS2_, symObjAddr: 0x2B20, symBinAddr: 0x1000059AC, symSize: 0x14 }
  - { offsetInCU: 0xC383, offset: 0xC383, size: 0x8, addend: 0x0, symName: __ZNSt3__19allocatorIP8TentacleE10deallocateB8ue170006EPS2_m, symObjAddr: 0x2B34, symBinAddr: 0x1000059C0, symSize: 0x40 }
  - { offsetInCU: 0xC3C4, offset: 0xC3C4, size: 0x8, addend: 0x0, symName: __ZNKSt3__114__split_bufferIP8TentacleRNS_9allocatorIS2_EEE9__end_capB8ue170006Ev, symObjAddr: 0x2C7C, symBinAddr: 0x100005B08, symSize: 0x28 }
  - { offsetInCU: 0xC3E9, offset: 0xC3E9, size: 0x8, addend: 0x0, symName: __ZNKSt3__117__compressed_pairIPP8TentacleRNS_9allocatorIS2_EEE5firstB8ue170006Ev, symObjAddr: 0x2CA4, symBinAddr: 0x100005B30, symSize: 0x24 }
  - { offsetInCU: 0xC40E, offset: 0xC40E, size: 0x8, addend: 0x0, symName: __ZN9PtrVectorI8TentacleED2Ev, symObjAddr: 0x2CC8, symBinAddr: 0x100005B54, symSize: 0x34 }
  - { offsetInCU: 0xC437, offset: 0xC437, size: 0x8, addend: 0x0, symName: __ZN9PtrVectorI8TentacleE11DeleteItemsEv, symObjAddr: 0x2CFC, symBinAddr: 0x100005B88, symSize: 0xB0 }
  - { offsetInCU: 0xC4AD, offset: 0xC4AD, size: 0x8, addend: 0x0, symName: __ZNSt3__16vectorIP8TentacleNS_9allocatorIS2_EEED1B8ue170006Ev, symObjAddr: 0x2DAC, symBinAddr: 0x100005C38, symSize: 0x2C }
  - { offsetInCU: 0xC4D5, offset: 0xC4D5, size: 0x8, addend: 0x0, symName: __ZNSt3__16vectorIP8TentacleNS_9allocatorIS2_EEE5beginB8ue170006Ev, symObjAddr: 0x2DD8, symBinAddr: 0x100005C64, symSize: 0x30 }
  - { offsetInCU: 0xC4FB, offset: 0xC4FB, size: 0x8, addend: 0x0, symName: __ZNSt3__16vectorIP8TentacleNS_9allocatorIS2_EEE3endB8ue170006Ev, symObjAddr: 0x2E08, symBinAddr: 0x100005C94, symSize: 0x30 }
  - { offsetInCU: 0xC522, offset: 0xC522, size: 0x8, addend: 0x0, symName: __ZNKSt3__111__wrap_iterIPP8TentacleEdeB8ue170006Ev, symObjAddr: 0x2E6C, symBinAddr: 0x100005CF8, symSize: 0x18 }
  - { offsetInCU: 0xC547, offset: 0xC547, size: 0x8, addend: 0x0, symName: __ZNSt3__111__wrap_iterIPP8TentacleEppB8ue170006Ev, symObjAddr: 0x2E84, symBinAddr: 0x100005D10, symSize: 0x20 }
  - { offsetInCU: 0xC56C, offset: 0xC56C, size: 0x8, addend: 0x0, symName: __ZNSt3__16vectorIP8TentacleNS_9allocatorIS2_EEE11__make_iterB8ue170006EPS2_, symObjAddr: 0x2EA4, symBinAddr: 0x100005D30, symSize: 0x30 }
  - { offsetInCU: 0xC5A0, offset: 0xC5A0, size: 0x8, addend: 0x0, symName: __ZNSt3__111__wrap_iterIPP8TentacleEC1B8ue170006ES3_, symObjAddr: 0x2ED4, symBinAddr: 0x100005D60, symSize: 0x34 }
  - { offsetInCU: 0xC5D7, offset: 0xC5D7, size: 0x8, addend: 0x0, symName: __ZNSt3__111__wrap_iterIPP8TentacleEC2B8ue170006ES3_, symObjAddr: 0x2F08, symBinAddr: 0x100005D94, symSize: 0x20 }
  - { offsetInCU: 0xC60E, offset: 0xC60E, size: 0x8, addend: 0x0, symName: __ZNKSt3__111__wrap_iterIPP8TentacleE4baseB8ue170006Ev, symObjAddr: 0x2F70, symBinAddr: 0x100005DFC, symSize: 0x18 }
  - { offsetInCU: 0xC633, offset: 0xC633, size: 0x8, addend: 0x0, symName: __ZNSt3__16vectorIP8TentacleNS_9allocatorIS2_EEED2B8ue170006Ev, symObjAddr: 0x2F88, symBinAddr: 0x100005E14, symSize: 0x44 }
  - { offsetInCU: 0xC65C, offset: 0xC65C, size: 0x8, addend: 0x0, symName: __ZNSt3__16vectorIP8TentacleNS_9allocatorIS2_EEE16__destroy_vectorC1B8ue170006ERS5_, symObjAddr: 0x2FCC, symBinAddr: 0x100005E58, symSize: 0x34 }
  - { offsetInCU: 0xC694, offset: 0xC694, size: 0x8, addend: 0x0, symName: __ZNSt3__16vectorIP8TentacleNS_9allocatorIS2_EEE16__destroy_vectorclB8ue170006Ev, symObjAddr: 0x3000, symBinAddr: 0x100005E8C, symSize: 0x90 }
  - { offsetInCU: 0xC6B9, offset: 0xC6B9, size: 0x8, addend: 0x0, symName: __ZNSt3__16vectorIP8TentacleNS_9allocatorIS2_EEE16__destroy_vectorC2B8ue170006ERS5_, symObjAddr: 0x3090, symBinAddr: 0x100005F1C, symSize: 0x20 }
  - { offsetInCU: 0xC6F1, offset: 0xC6F1, size: 0x8, addend: 0x0, symName: __ZNSt3__16vectorIP8TentacleNS_9allocatorIS2_EEE7__clearB8ue170006Ev, symObjAddr: 0x30B0, symBinAddr: 0x100005F3C, symSize: 0x28 }
  - { offsetInCU: 0xC716, offset: 0xC716, size: 0x8, addend: 0x0, symName: __ZNSt3__16vectorIP8TentacleNS_9allocatorIS2_EEE22__base_destruct_at_endB8ue170006EPS2_, symObjAddr: 0x30D8, symBinAddr: 0x100005F64, symSize: 0x8C }
  - { offsetInCU: 0xC759, offset: 0xC759, size: 0x8, addend: 0x0, symName: __ZN7OctopusD2Ev, symObjAddr: 0x3164, symBinAddr: 0x100005FF0, symSize: 0x2C }
  - { offsetInCU: 0xC781, offset: 0xC781, size: 0x8, addend: 0x0, symName: __ZNSt3__16vectorIP8TentacleNS_9allocatorIS2_EEE2atEm, symObjAddr: 0x3190, symBinAddr: 0x10000601C, symSize: 0x60 }
  - { offsetInCU: 0xC7B7, offset: 0xC7B7, size: 0x8, addend: 0x0, symName: __ZNKSt3__16vectorIP8TentacleNS_9allocatorIS2_EEE20__throw_out_of_rangeB8ue170006Ev, symObjAddr: 0x31F0, symBinAddr: 0x10000607C, symSize: 0x1C }
  - { offsetInCU: 0xC7DC, offset: 0xC7DC, size: 0x8, addend: 0x0, symName: __ZNSt12out_of_rangeC1B8ue170006EPKc, symObjAddr: 0x3270, symBinAddr: 0x1000060FC, symSize: 0x34 }
  - { offsetInCU: 0xC813, offset: 0xC813, size: 0x8, addend: 0x0, symName: __ZNSt12out_of_rangeC2B8ue170006EPKc, symObjAddr: 0x32A4, symBinAddr: 0x100006130, symSize: 0x4C }
  - { offsetInCU: 0xC84A, offset: 0xC84A, size: 0x8, addend: 0x0, symName: __ZNSt3__16vectorIP8TentacleNS_9allocatorIS2_EEE4backB8ue170006Ev, symObjAddr: 0x32F0, symBinAddr: 0x10000617C, symSize: 0x1C }
  - { offsetInCU: 0xC86F, offset: 0xC86F, size: 0x8, addend: 0x0, symName: __ZN7OctopusC2ERKS_, symObjAddr: 0x330C, symBinAddr: 0x100006198, symSize: 0x34 }
  - { offsetInCU: 0xC8A3, offset: 0xC8A3, size: 0x8, addend: 0x0, symName: __ZN9PtrVectorI8TentacleEC1ERKS1_, symObjAddr: 0x3340, symBinAddr: 0x1000061CC, symSize: 0x34 }
  - { offsetInCU: 0xC8DA, offset: 0xC8DA, size: 0x8, addend: 0x0, symName: __ZN9PtrVectorI8TentacleEC2ERKS1_, symObjAddr: 0x3374, symBinAddr: 0x100006200, symSize: 0x19C }
  - { offsetInCU: 0xC966, offset: 0xC966, size: 0x8, addend: 0x0, symName: __ZNSt3__16vectorIP8TentacleNS_9allocatorIS2_EEE7reserveEm, symObjAddr: 0x3510, symBinAddr: 0x10000639C, symSize: 0xE8 }
  - { offsetInCU: 0xC9C0, offset: 0xC9C0, size: 0x8, addend: 0x0, symName: __ZNKSt3__16vectorIP8TentacleNS_9allocatorIS2_EEE5beginB8ue170006Ev, symObjAddr: 0x35F8, symBinAddr: 0x100006484, symSize: 0x30 }
  - { offsetInCU: 0xC9E6, offset: 0xC9E6, size: 0x8, addend: 0x0, symName: __ZNKSt3__16vectorIP8TentacleNS_9allocatorIS2_EEE3endB8ue170006Ev, symObjAddr: 0x3628, symBinAddr: 0x1000064B4, symSize: 0x30 }
  - { offsetInCU: 0xCA0D, offset: 0xCA0D, size: 0x8, addend: 0x0, symName: __ZNKSt3__111__wrap_iterIPKP8TentacleEdeB8ue170006Ev, symObjAddr: 0x368C, symBinAddr: 0x100006518, symSize: 0x18 }
  - { offsetInCU: 0xCA31, offset: 0xCA31, size: 0x8, addend: 0x0, symName: __ZNSt3__16vectorIP8TentacleNS_9allocatorIS2_EEE9push_backB8ue170006ERKS2_, symObjAddr: 0x36A4, symBinAddr: 0x100006530, symSize: 0x6C }
  - { offsetInCU: 0xCA67, offset: 0xCA67, size: 0x8, addend: 0x0, symName: __ZNSt3__111__wrap_iterIPKP8TentacleEppB8ue170006Ev, symObjAddr: 0x3710, symBinAddr: 0x10000659C, symSize: 0x20 }
  - { offsetInCU: 0xCA8C, offset: 0xCA8C, size: 0x8, addend: 0x0, symName: __ZNKSt3__16vectorIP8TentacleNS_9allocatorIS2_EEE11__make_iterB8ue170006EPKS2_, symObjAddr: 0x3730, symBinAddr: 0x1000065BC, symSize: 0x30 }
  - { offsetInCU: 0xCAC0, offset: 0xCAC0, size: 0x8, addend: 0x0, symName: __ZNSt3__111__wrap_iterIPKP8TentacleEC1B8ue170006ES4_, symObjAddr: 0x3760, symBinAddr: 0x1000065EC, symSize: 0x34 }
  - { offsetInCU: 0xCAF7, offset: 0xCAF7, size: 0x8, addend: 0x0, symName: __ZNSt3__111__wrap_iterIPKP8TentacleEC2B8ue170006ES4_, symObjAddr: 0x3794, symBinAddr: 0x100006620, symSize: 0x20 }
  - { offsetInCU: 0xCB2E, offset: 0xCB2E, size: 0x8, addend: 0x0, symName: __ZNKSt3__111__wrap_iterIPKP8TentacleE4baseB8ue170006Ev, symObjAddr: 0x37FC, symBinAddr: 0x100006688, symSize: 0x18 }
  - { offsetInCU: 0xCB53, offset: 0xCB53, size: 0x8, addend: 0x0, symName: __ZNSt3__16vectorIP8TentacleNS_9allocatorIS2_EEE22__construct_one_at_endB8ue170006IJRKS2_EEEvDpOT_, symObjAddr: 0x3814, symBinAddr: 0x1000066A0, symSize: 0x90 }
  - { offsetInCU: 0xCBA0, offset: 0xCBA0, size: 0x8, addend: 0x0, symName: __ZNSt3__16vectorIP8TentacleNS_9allocatorIS2_EEE21__push_back_slow_pathIRKS2_EEvOT_, symObjAddr: 0x38A4, symBinAddr: 0x100006730, symSize: 0xD8 }
  - { offsetInCU: 0xCBFD, offset: 0xCBFD, size: 0x8, addend: 0x0, symName: __ZNSt3__116allocator_traitsINS_9allocatorIP8TentacleEEE9constructB8ue170006IS3_JRKS3_EvEEvRS4_PT_DpOT0_, symObjAddr: 0x397C, symBinAddr: 0x100006808, symSize: 0x34 }
  - { offsetInCU: 0xCC54, offset: 0xCC54, size: 0x8, addend: 0x0, symName: __ZNSt3__19allocatorIP8TentacleE9constructB8ue170006IS2_JRKS2_EEEvPT_DpOT0_, symObjAddr: 0x39B0, symBinAddr: 0x10000683C, symSize: 0x28 }
  - { offsetInCU: 0xCCA9, offset: 0xCCA9, size: 0x8, addend: 0x0, symName: __ZNSt3__112basic_stringIcNS_11char_traitsIcEENS_9allocatorIcEEEC1B8ue170006EPKcm, symObjAddr: 0x39D8, symBinAddr: 0x100006864, symSize: 0x3C }
  - { offsetInCU: 0xCCF0, offset: 0xCCF0, size: 0x8, addend: 0x0, symName: __ZNSt3__112basic_stringIcNS_11char_traitsIcEENS_9allocatorIcEEEC2B8ue170006EPKcm, symObjAddr: 0x3A14, symBinAddr: 0x1000068A0, symSize: 0x4C }
  - { offsetInCU: 0xCD37, offset: 0xCD37, size: 0x8, addend: 0x0, symName: __ZNSt3__117__compressed_pairINS_12basic_stringIcNS_11char_traitsIcEENS_9allocatorIcEEE5__repES5_EC1B8ue170006INS_18__default_init_tagESA_EEOT_OT0_, symObjAddr: 0x3A60, symBinAddr: 0x1000068EC, symSize: 0x3C }
  - { offsetInCU: 0xCD8E, offset: 0xCD8E, size: 0x8, addend: 0x0, symName: __ZNSt3__117__compressed_pairINS_12basic_stringIcNS_11char_traitsIcEENS_9allocatorIcEEE5__repES5_EC2B8ue170006INS_18__default_init_tagESA_EEOT_OT0_, symObjAddr: 0x3A9C, symBinAddr: 0x100006928, symSize: 0x3C }
  - { offsetInCU: 0xCDE5, offset: 0xCDE5, size: 0x8, addend: 0x0, symName: __ZNSt3__122__compressed_pair_elemINS_12basic_stringIcNS_11char_traitsIcEENS_9allocatorIcEEE5__repELi0ELb0EEC2B8ue170006ENS_18__default_init_tagE, symObjAddr: 0x3AD8, symBinAddr: 0x100006964, symSize: 0x14 }
  - { offsetInCU: 0xCE19, offset: 0xCE19, size: 0x8, addend: 0x0, symName: __ZNSt3__122__compressed_pair_elemINS_9allocatorIcEELi1ELb1EEC2B8ue170006ENS_18__default_init_tagE, symObjAddr: 0x3AEC, symBinAddr: 0x100006978, symSize: 0x2C }
  - { offsetInCU: 0xCE4D, offset: 0xCE4D, size: 0x8, addend: 0x0, symName: __ZNSt3__19allocatorIcEC2B8ue170006Ev, symObjAddr: 0x3B18, symBinAddr: 0x1000069A4, symSize: 0x2C }
  - { offsetInCU: 0xCE76, offset: 0xCE76, size: 0x8, addend: 0x0, symName: __ZNSt3__116__non_trivial_ifILb1ENS_9allocatorIcEEEC2B8ue170006Ev, symObjAddr: 0x3B44, symBinAddr: 0x1000069D0, symSize: 0x14 }
  - { offsetInCU: 0xCE9F, offset: 0xCE9F, size: 0x8, addend: 0x0, symName: __ZNKSt3__112basic_stringIcNS_11char_traitsIcEENS_9allocatorIcEEE4dataB8ue170006Ev, symObjAddr: 0x3D44, symBinAddr: 0x100006BD0, symSize: 0x28 }
  - { offsetInCU: 0xCEC4, offset: 0xCEC4, size: 0x8, addend: 0x0, symName: __ZNKSt3__112basic_stringIcNS_11char_traitsIcEENS_9allocatorIcEEE4sizeB8ue170006Ev, symObjAddr: 0x3D6C, symBinAddr: 0x100006BF8, symSize: 0x54 }
  - { offsetInCU: 0xCF07, offset: 0xCF07, size: 0x8, addend: 0x0, symName: __ZNKSt3__113basic_ostreamIcNS_11char_traitsIcEEE6sentrycvbB8ue170006Ev, symObjAddr: 0x3DC0, symBinAddr: 0x100006C4C, symSize: 0x1C }
  - { offsetInCU: 0xCF2C, offset: 0xCF2C, size: 0x8, addend: 0x0, symName: __ZNSt3__119ostreambuf_iteratorIcNS_11char_traitsIcEEEC1B8ue170006ERNS_13basic_ostreamIcS2_EE, symObjAddr: 0x401C, symBinAddr: 0x100006EA8, symSize: 0x34 }
  - { offsetInCU: 0xCF63, offset: 0xCF63, size: 0x8, addend: 0x0, symName: __ZNKSt3__18ios_base5flagsB8ue170006Ev, symObjAddr: 0x4050, symBinAddr: 0x100006EDC, symSize: 0x18 }
  - { offsetInCU: 0xCF89, offset: 0xCF89, size: 0x8, addend: 0x0, symName: __ZNKSt3__19basic_iosIcNS_11char_traitsIcEEE4fillB8ue170006Ev, symObjAddr: 0x4068, symBinAddr: 0x100006EF4, symSize: 0x64 }
  - { offsetInCU: 0xCFB0, offset: 0xCFB0, size: 0x8, addend: 0x0, symName: __ZNKSt3__119ostreambuf_iteratorIcNS_11char_traitsIcEEE6failedB8ue170006Ev, symObjAddr: 0x40CC, symBinAddr: 0x100006F58, symSize: 0x24 }
  - { offsetInCU: 0xCFD5, offset: 0xCFD5, size: 0x8, addend: 0x0, symName: __ZNSt3__19basic_iosIcNS_11char_traitsIcEEE8setstateB8ue170006Ej, symObjAddr: 0x40F0, symBinAddr: 0x100006F7C, symSize: 0x2C }
  - { offsetInCU: 0xD009, offset: 0xD009, size: 0x8, addend: 0x0, symName: __ZNKSt3__18ios_base5widthB8ue170006Ev, symObjAddr: 0x411C, symBinAddr: 0x100006FA8, symSize: 0x18 }
  - { offsetInCU: 0xD030, offset: 0xD030, size: 0x8, addend: 0x0, symName: __ZNSt3__115basic_streambufIcNS_11char_traitsIcEEE5sputnB8ue170006EPKcl, symObjAddr: 0x4134, symBinAddr: 0x100006FC0, symSize: 0x3C }
  - { offsetInCU: 0xD071, offset: 0xD071, size: 0x8, addend: 0x0, symName: __ZNSt3__112basic_stringIcNS_11char_traitsIcEENS_9allocatorIcEEEC1B8ue170006Emc, symObjAddr: 0x4170, symBinAddr: 0x100006FFC, symSize: 0x3C }
  - { offsetInCU: 0xD0B8, offset: 0xD0B8, size: 0x8, addend: 0x0, symName: __ZNSt3__112basic_stringIcNS_11char_traitsIcEENS_9allocatorIcEEE4dataB8ue170006Ev, symObjAddr: 0x41AC, symBinAddr: 0x100007038, symSize: 0x28 }
  - { offsetInCU: 0xD0DD, offset: 0xD0DD, size: 0x8, addend: 0x0, symName: __ZNSt3__18ios_base5widthB8ue170006El, symObjAddr: 0x41D4, symBinAddr: 0x100007060, symSize: 0x2C }
  - { offsetInCU: 0xD122, offset: 0xD122, size: 0x8, addend: 0x0, symName: __ZNSt3__112basic_stringIcNS_11char_traitsIcEENS_9allocatorIcEEEC2B8ue170006Emc, symObjAddr: 0x4200, symBinAddr: 0x10000708C, symSize: 0x4C }
  - { offsetInCU: 0xD169, offset: 0xD169, size: 0x8, addend: 0x0, symName: __ZNSt3__112basic_stringIcNS_11char_traitsIcEENS_9allocatorIcEEE13__get_pointerB8ue170006Ev, symObjAddr: 0x4260, symBinAddr: 0x1000070EC, symSize: 0x54 }
  - { offsetInCU: 0xD18E, offset: 0xD18E, size: 0x8, addend: 0x0, symName: __ZNKSt3__112basic_stringIcNS_11char_traitsIcEENS_9allocatorIcEEE9__is_longB8ue170006Ev, symObjAddr: 0x42B4, symBinAddr: 0x100007140, symSize: 0x38 }
  - { offsetInCU: 0xD1B3, offset: 0xD1B3, size: 0x8, addend: 0x0, symName: __ZNSt3__112basic_stringIcNS_11char_traitsIcEENS_9allocatorIcEEE18__get_long_pointerB8ue170006Ev, symObjAddr: 0x42EC, symBinAddr: 0x100007178, symSize: 0x28 }
  - { offsetInCU: 0xD1D8, offset: 0xD1D8, size: 0x8, addend: 0x0, symName: __ZNSt3__112basic_stringIcNS_11char_traitsIcEENS_9allocatorIcEEE19__get_short_pointerB8ue170006Ev, symObjAddr: 0x4314, symBinAddr: 0x1000071A0, symSize: 0x28 }
  - { offsetInCU: 0xD1FD, offset: 0xD1FD, size: 0x8, addend: 0x0, symName: __ZNKSt3__117__compressed_pairINS_12basic_stringIcNS_11char_traitsIcEENS_9allocatorIcEEE5__repES5_E5firstB8ue170006Ev, symObjAddr: 0x433C, symBinAddr: 0x1000071C8, symSize: 0x24 }
  - { offsetInCU: 0xD222, offset: 0xD222, size: 0x8, addend: 0x0, symName: __ZNKSt3__122__compressed_pair_elemINS_12basic_stringIcNS_11char_traitsIcEENS_9allocatorIcEEE5__repELi0ELb0EE5__getB8ue170006Ev, symObjAddr: 0x4360, symBinAddr: 0x1000071EC, symSize: 0x14 }
  - { offsetInCU: 0xD247, offset: 0xD247, size: 0x8, addend: 0x0, symName: __ZNSt3__117__compressed_pairINS_12basic_stringIcNS_11char_traitsIcEENS_9allocatorIcEEE5__repES5_E5firstB8ue170006Ev, symObjAddr: 0x4374, symBinAddr: 0x100007200, symSize: 0x24 }
  - { offsetInCU: 0xD26C, offset: 0xD26C, size: 0x8, addend: 0x0, symName: __ZNSt3__122__compressed_pair_elemINS_12basic_stringIcNS_11char_traitsIcEENS_9allocatorIcEEE5__repELi0ELb0EE5__getB8ue170006Ev, symObjAddr: 0x4398, symBinAddr: 0x100007224, symSize: 0x14 }
  - { offsetInCU: 0xD291, offset: 0xD291, size: 0x8, addend: 0x0, symName: __ZNSt3__114pointer_traitsIPcE10pointer_toB8ue170006ERc, symObjAddr: 0x43AC, symBinAddr: 0x100007238, symSize: 0x14 }
  - { offsetInCU: 0xD2B4, offset: 0xD2B4, size: 0x8, addend: 0x0, symName: __ZNSt3__119ostreambuf_iteratorIcNS_11char_traitsIcEEEC2B8ue170006ERNS_13basic_ostreamIcS2_EE, symObjAddr: 0x43C0, symBinAddr: 0x10000724C, symSize: 0x54 }
  - { offsetInCU: 0xD2EA, offset: 0xD2EA, size: 0x8, addend: 0x0, symName: __ZNKSt3__19basic_iosIcNS_11char_traitsIcEEE5rdbufB8ue170006Ev, symObjAddr: 0x4414, symBinAddr: 0x1000072A0, symSize: 0x24 }
  - { offsetInCU: 0xD311, offset: 0xD311, size: 0x8, addend: 0x0, symName: __ZNKSt3__18ios_base5rdbufB8ue170006Ev, symObjAddr: 0x4438, symBinAddr: 0x1000072C4, symSize: 0x18 }
  - { offsetInCU: 0xD336, offset: 0xD336, size: 0x8, addend: 0x0, symName: __ZNSt3__111char_traitsIcE11eq_int_typeB8ue170006Eii, symObjAddr: 0x4450, symBinAddr: 0x1000072DC, symSize: 0x28 }
  - { offsetInCU: 0xD369, offset: 0xD369, size: 0x8, addend: 0x0, symName: __ZNSt3__111char_traitsIcE3eofB8ue170006Ev, symObjAddr: 0x4478, symBinAddr: 0x100007304, symSize: 0x8 }
  - { offsetInCU: 0xD37C, offset: 0xD37C, size: 0x8, addend: 0x0, symName: __ZNKSt3__19basic_iosIcNS_11char_traitsIcEEE5widenB8ue170006Ec, symObjAddr: 0x4480, symBinAddr: 0x10000730C, symSize: 0x84 }
  - { offsetInCU: 0xD3E9, offset: 0xD3E9, size: 0x8, addend: 0x0, symName: __ZNKSt3__15ctypeIcE5widenB8ue170006Ec, symObjAddr: 0x4530, symBinAddr: 0x1000073BC, symSize: 0x38 }
  - { offsetInCU: 0xD41C, offset: 0xD41C, size: 0x8, addend: 0x0, symName: __ZNSt3__18ios_base8setstateB8ue170006Ej, symObjAddr: 0x4568, symBinAddr: 0x1000073F4, symSize: 0x34 }
  - { offsetInCU: 0xD452, offset: 0xD452, size: 0x8, addend: 0x0, symName: __ZNKSt3__112basic_stringIcNS_11char_traitsIcEENS_9allocatorIcEEE13__get_pointerB8ue170006Ev, symObjAddr: 0x45B0, symBinAddr: 0x10000743C, symSize: 0x54 }
  - { offsetInCU: 0xD477, offset: 0xD477, size: 0x8, addend: 0x0, symName: __ZNKSt3__112basic_stringIcNS_11char_traitsIcEENS_9allocatorIcEEE18__get_long_pointerB8ue170006Ev, symObjAddr: 0x4604, symBinAddr: 0x100007490, symSize: 0x28 }
  - { offsetInCU: 0xD49C, offset: 0xD49C, size: 0x8, addend: 0x0, symName: __ZNKSt3__112basic_stringIcNS_11char_traitsIcEENS_9allocatorIcEEE19__get_short_pointerB8ue170006Ev, symObjAddr: 0x462C, symBinAddr: 0x1000074B8, symSize: 0x28 }
  - { offsetInCU: 0xD4C1, offset: 0xD4C1, size: 0x8, addend: 0x0, symName: __ZNSt3__114pointer_traitsIPKcE10pointer_toB8ue170006ERS1_, symObjAddr: 0x4654, symBinAddr: 0x1000074E0, symSize: 0x14 }
  - { offsetInCU: 0xD4E4, offset: 0xD4E4, size: 0x8, addend: 0x0, symName: __ZNKSt3__112basic_stringIcNS_11char_traitsIcEENS_9allocatorIcEEE15__get_long_sizeB8ue170006Ev, symObjAddr: 0x4668, symBinAddr: 0x1000074F4, symSize: 0x28 }
  - { offsetInCU: 0xD509, offset: 0xD509, size: 0x8, addend: 0x0, symName: __ZNKSt3__112basic_stringIcNS_11char_traitsIcEENS_9allocatorIcEEE16__get_short_sizeB8ue170006Ev, symObjAddr: 0x4690, symBinAddr: 0x10000751C, symSize: 0x34 }
...
