---
triple:          'arm64-apple-darwin'
binary-path:     '/Users/varvbar/projects/practicum/Sprint6/Theme1/main7'
relocations:
  - { offsetInCU: 0x4D6D, offset: 0x4D6D, size: 0x8, addend: 0x0, symName: __ZNSt3__112__to_addressB8ue170006IP8TentacleEEPT_S4_, symObjAddr: 0x7D8, symBinAddr: 0x10000138C, symSize: 0x14 }
  - { offsetInCU: 0x4DA2, offset: 0x4DA2, size: 0x8, addend: 0x0, symName: __ZNSt3__13maxB8ue170006ImEERKT_S3_S3_, symObjAddr: 0xBF4, symBinAddr: 0x1000017A8, symSize: 0x2C }
  - { offsetInCU: 0x4DE5, offset: 0x4DE5, size: 0x8, addend: 0x0, symName: __ZNSt3__13minB8ue170006ImEERKT_S3_S3_, symObjAddr: 0xC20, symBinAddr: 0x1000017D4, symSize: 0x2C }
  - { offsetInCU: 0x5012, offset: 0x5012, size: 0x8, addend: 0x0, symName: __ZNSt3__13minB8ue170006ImNS_6__lessIvvEEEERKT_S5_S5_T0_, symObjAddr: 0xCAC, symBinAddr: 0x100001860, symSize: 0x54 }
  - { offsetInCU: 0x50B1, offset: 0x50B1, size: 0x8, addend: 0x0, symName: __ZNSt3__120__throw_length_errorB8ue170006EPKc, symObjAddr: 0xD88, symBinAddr: 0x10000193C, symSize: 0x64 }
  - { offsetInCU: 0x50DB, offset: 0x50DB, size: 0x8, addend: 0x0, symName: __ZNSt3__13maxB8ue170006ImNS_6__lessIvvEEEERKT_S5_S5_T0_, symObjAddr: 0xECC, symBinAddr: 0x100001A80, symSize: 0x54 }
  - { offsetInCU: 0x5135, offset: 0x5135, size: 0x8, addend: 0x0, symName: __ZNSt3__119__allocate_at_leastB8ue170006INS_9allocatorIP8TentacleEEEENS_19__allocation_resultINS_16allocator_traitsIT_E7pointerEEERS7_m, symObjAddr: 0x1030, symBinAddr: 0x100001BE4, symSize: 0x40 }
  - { offsetInCU: 0x5178, offset: 0x5178, size: 0x8, addend: 0x0, symName: __ZNSt3__117__libcpp_allocateB8ue170006Emm, symObjAddr: 0x11B4, symBinAddr: 0x100001D68, symSize: 0x60 }
  - { offsetInCU: 0x51D2, offset: 0x51D2, size: 0x8, addend: 0x0, symName: __ZNSt3__124__is_overaligned_for_newB8ue170006Em, symObjAddr: 0x1214, symBinAddr: 0x100001DC8, symSize: 0x20 }
  - { offsetInCU: 0x5200, offset: 0x5200, size: 0x8, addend: 0x0, symName: __ZNSt3__121__libcpp_operator_newB8ue170006IJmSt11align_val_tEEEPvDpT_, symObjAddr: 0x1234, symBinAddr: 0x100001DE8, symSize: 0x2C }
  - { offsetInCU: 0x524D, offset: 0x524D, size: 0x8, addend: 0x0, symName: __ZNSt3__121__libcpp_operator_newB8ue170006IJmEEEPvDpT_, symObjAddr: 0x1260, symBinAddr: 0x100001E14, symSize: 0x24 }
  - { offsetInCU: 0x5286, offset: 0x5286, size: 0x8, addend: 0x0, symName: __ZNSt3__142__uninitialized_allocator_move_if_noexceptB8ue170006INS_9allocatorIP8TentacleEENS_16reverse_iteratorIPS3_EES7_S3_vEET1_RT_T0_SB_S8_, symObjAddr: 0x13A0, symBinAddr: 0x100001F54, symSize: 0x78 }
  - { offsetInCU: 0x5303, offset: 0x5303, size: 0x8, addend: 0x0, symName: __ZNSt3__14swapB8ue170006IPP8TentacleEENS_9enable_ifIXaasr21is_move_constructibleIT_EE5valuesr18is_move_assignableIS5_EE5valueEvE4typeERS5_S8_, symObjAddr: 0x1464, symBinAddr: 0x100002018, symSize: 0x3C }
  - { offsetInCU: 0x5354, offset: 0x5354, size: 0x8, addend: 0x0, symName: __ZNSt3__14moveB8ue170006INS_16reverse_iteratorIPP8TentacleEES5_EET0_T_S7_S6_, symObjAddr: 0x1594, symBinAddr: 0x100002148, symSize: 0x78 }
  - { offsetInCU: 0x53AE, offset: 0x53AE, size: 0x8, addend: 0x0, symName: __ZNSt3__16__moveB8ue170006INS_17_ClassicAlgPolicyENS_16reverse_iteratorIPP8TentacleEES6_S6_EENS_4pairIT0_T2_EES8_T1_S9_, symObjAddr: 0x160C, symBinAddr: 0x1000021C0, symSize: 0x64 }
  - { offsetInCU: 0x541A, offset: 0x541A, size: 0x8, addend: 0x0, symName: __ZNSt3__123__dispatch_copy_or_moveB8ue170006INS_17_ClassicAlgPolicyENS_11__move_loopIS1_EENS_14__move_trivialENS_16reverse_iteratorIPP8TentacleEES9_S9_EENS_4pairIT2_T4_EESB_T3_SC_, symObjAddr: 0x1670, symBinAddr: 0x100002224, symSize: 0x64 }
  - { offsetInCU: 0x5498, offset: 0x5498, size: 0x8, addend: 0x0, symName: __ZNSt3__121__unwrap_and_dispatchB8ue170006INS_10__overloadINS_11__move_loopINS_17_ClassicAlgPolicyEEENS_14__move_trivialEEENS_16reverse_iteratorIPP8TentacleEESB_SB_Li0EEENS_4pairIT0_T2_EESD_T1_SE_, symObjAddr: 0x16D4, symBinAddr: 0x100002288, symSize: 0x12C }
  - { offsetInCU: 0x5528, offset: 0x5528, size: 0x8, addend: 0x0, symName: __ZNSt3__114__unwrap_rangeB8ue170006INS_16reverse_iteratorIPP8TentacleEES5_EENS_4pairIT0_S7_EET_S9_, symObjAddr: 0x1800, symBinAddr: 0x1000023B4, symSize: 0x84 }
  - { offsetInCU: 0x56A3, offset: 0x56A3, size: 0x8, addend: 0x0, symName: __ZNSt3__113__unwrap_iterB8ue170006INS_16reverse_iteratorIPP8TentacleEENS_18__unwrap_iter_implIS5_Lb0EEELi0EEEDTclsrT0_8__unwrapclsr3stdE7declvalIT_EEEES9_, symObjAddr: 0x1924, symBinAddr: 0x1000024D8, symSize: 0x44 }
  - { offsetInCU: 0x56E7, offset: 0x56E7, size: 0x8, addend: 0x0, symName: __ZNSt3__19make_pairB8ue170006INS_16reverse_iteratorIPP8TentacleEES5_EENS_4pairINS_18__unwrap_ref_decayIT_E4typeENS7_IT0_E4typeEEEOS8_OSB_, symObjAddr: 0x1968, symBinAddr: 0x10000251C, symSize: 0x38 }
  - { offsetInCU: 0x5736, offset: 0x5736, size: 0x8, addend: 0x0, symName: __ZNSt3__114__rewrap_rangeB8ue170006INS_16reverse_iteratorIPP8TentacleEES5_EET_S6_T0_, symObjAddr: 0x19A0, symBinAddr: 0x100002554, symSize: 0x5C }
  - { offsetInCU: 0x5782, offset: 0x5782, size: 0x8, addend: 0x0, symName: __ZNSt3__113__rewrap_iterB8ue170006INS_16reverse_iteratorIPP8TentacleEES5_NS_18__unwrap_iter_implIS5_Lb0EEEEET_S8_T0_, symObjAddr: 0x19FC, symBinAddr: 0x1000025B0, symSize: 0x74 }
  - { offsetInCU: 0x57D7, offset: 0x57D7, size: 0x8, addend: 0x0, symName: __ZNSt3__1neB8ue170006IPP8TentacleS3_EEbRKNS_16reverse_iteratorIT_EERKNS4_IT0_EE, symObjAddr: 0x1A70, symBinAddr: 0x100002624, symSize: 0x48 }
  - { offsetInCU: 0x58D5, offset: 0x58D5, size: 0x8, addend: 0x0, symName: __ZNSt3__119__libcpp_deallocateB8ue170006EPvmm, symObjAddr: 0x1E68, symBinAddr: 0x100002A1C, symSize: 0x60 }
  - { offsetInCU: 0x593A, offset: 0x593A, size: 0x8, addend: 0x0, symName: __ZNSt3__127__do_deallocate_handle_sizeB8ue170006IJSt11align_val_tEEEvPvmDpT_, symObjAddr: 0x1EC8, symBinAddr: 0x100002A7C, symSize: 0x30 }
  - { offsetInCU: 0x598D, offset: 0x598D, size: 0x8, addend: 0x0, symName: __ZNSt3__127__do_deallocate_handle_sizeB8ue170006IJEEEvPvmDpT_, symObjAddr: 0x1EF8, symBinAddr: 0x100002AAC, symSize: 0x28 }
  - { offsetInCU: 0x59CB, offset: 0x59CB, size: 0x8, addend: 0x0, symName: __ZNSt3__124__libcpp_operator_deleteB8ue170006IJPvSt11align_val_tEEEvDpT_, symObjAddr: 0x1F20, symBinAddr: 0x100002AD4, symSize: 0x2C }
  - { offsetInCU: 0x5A14, offset: 0x5A14, size: 0x8, addend: 0x0, symName: __ZNSt3__124__libcpp_operator_deleteB8ue170006IJPvEEEvDpT_, symObjAddr: 0x1F4C, symBinAddr: 0x100002B00, symSize: 0x24 }
  - { offsetInCU: 0x5A49, offset: 0x5A49, size: 0x8, addend: 0x0, symName: __ZNSt3__1neB8ue170006IPP8TentacleEEbRKNS_11__wrap_iterIT_EES8_, symObjAddr: 0x201C, symBinAddr: 0x100002BD0, symSize: 0x34 }
  - { offsetInCU: 0x5A8C, offset: 0x5A8C, size: 0x8, addend: 0x0, symName: __ZNSt3__1eqB8ue170006IPP8TentacleEEbRKNS_11__wrap_iterIT_EES8_, symObjAddr: 0x2150, symBinAddr: 0x100002D04, symSize: 0x48 }
  - { offsetInCU: 0x5ACF, offset: 0x5ACF, size: 0x8, addend: 0x0, symName: __ZNSt3__122__make_exception_guardB8ue170006INS_6vectorIP8TentacleNS_9allocatorIS3_EEE16__destroy_vectorEEENS_28__exception_guard_exceptionsIT_EES9_, symObjAddr: 0x269C, symBinAddr: 0x100003250, symSize: 0x40 }
  - { offsetInCU: 0x5B04, offset: 0x5B04, size: 0x8, addend: 0x0, symName: __ZNSt3__130__uninitialized_allocator_copyB8ue170006INS_9allocatorIP8TentacleEEPS3_S5_S5_EET2_RT_T0_T1_S6_, symObjAddr: 0x28B4, symBinAddr: 0x100003468, symSize: 0x80 }
  - { offsetInCU: 0x5BA1, offset: 0x5BA1, size: 0x8, addend: 0x0, symName: __ZNSt3__114__unwrap_rangeB8ue170006IPP8TentacleS3_EENS_4pairIT0_S5_EET_S7_, symObjAddr: 0x2934, symBinAddr: 0x1000034E8, symSize: 0x60 }
  - { offsetInCU: 0x5BED, offset: 0x5BED, size: 0x8, addend: 0x0, symName: __ZNSt3__135__uninitialized_allocator_copy_implB8ue170006INS_9allocatorIP8TentacleEES3_S3_S3_LPv0EEEPT2_RT_PT0_SB_S7_, symObjAddr: 0x2994, symBinAddr: 0x100003548, symSize: 0x38 }
  - { offsetInCU: 0x5C6E, offset: 0x5C6E, size: 0x8, addend: 0x0, symName: __ZNSt3__113__unwrap_iterB8ue170006IPP8TentacleNS_18__unwrap_iter_implIS3_Lb1EEELi0EEEDTclsrT0_8__unwrapclsr3stdE7declvalIT_EEEES7_, symObjAddr: 0x29CC, symBinAddr: 0x100003580, symSize: 0x24 }
  - { offsetInCU: 0x5CB2, offset: 0x5CB2, size: 0x8, addend: 0x0, symName: __ZNSt3__113__rewrap_iterB8ue170006IPP8TentacleS3_NS_18__unwrap_iter_implIS3_Lb1EEEEET_S6_T0_, symObjAddr: 0x29F0, symBinAddr: 0x1000035A4, symSize: 0x3C }
  - { offsetInCU: 0x5D07, offset: 0x5D07, size: 0x8, addend: 0x0, symName: __ZNSt3__19make_pairB8ue170006IPP8TentacleS3_EENS_4pairINS_18__unwrap_ref_decayIT_E4typeENS5_IT0_E4typeEEEOS6_OS9_, symObjAddr: 0x2A2C, symBinAddr: 0x1000035E0, symSize: 0x38 }
  - { offsetInCU: 0x5E59, offset: 0x5E59, size: 0x8, addend: 0x0, symName: __ZNSt3__14copyB8ue170006IPP8TentacleS3_EET0_T_S5_S4_, symObjAddr: 0x2AD4, symBinAddr: 0x100003688, symSize: 0x40 }
  - { offsetInCU: 0x5EB3, offset: 0x5EB3, size: 0x8, addend: 0x0, symName: __ZNSt3__16__copyB8ue170006INS_17_ClassicAlgPolicyEPP8TentacleS4_S4_EENS_4pairIT0_T2_EES6_T1_S7_, symObjAddr: 0x2B14, symBinAddr: 0x1000036C8, symSize: 0x44 }
  - { offsetInCU: 0x5F1F, offset: 0x5F1F, size: 0x8, addend: 0x0, symName: __ZNSt3__123__dispatch_copy_or_moveB8ue170006INS_17_ClassicAlgPolicyENS_11__copy_loopIS1_EENS_14__copy_trivialEPP8TentacleS7_S7_EENS_4pairIT2_T4_EES9_T3_SA_, symObjAddr: 0x2B58, symBinAddr: 0x10000370C, symSize: 0x44 }
  - { offsetInCU: 0x5F9D, offset: 0x5F9D, size: 0x8, addend: 0x0, symName: __ZNSt3__121__unwrap_and_dispatchB8ue170006INS_10__overloadINS_11__copy_loopINS_17_ClassicAlgPolicyEEENS_14__copy_trivialEEEPP8TentacleS9_S9_Li0EEENS_4pairIT0_T2_EESB_T1_SC_, symObjAddr: 0x2B9C, symBinAddr: 0x100003750, symSize: 0xB4 }
  - { offsetInCU: 0x6071, offset: 0x6071, size: 0x8, addend: 0x0, symName: __ZNSt3__114__rewrap_rangeB8ue170006IPP8TentacleS3_EET_S4_T0_, symObjAddr: 0x2C98, symBinAddr: 0x10000384C, symSize: 0x2C }
  - { offsetInCU: 0x60BD, offset: 0x60BD, size: 0x8, addend: 0x0, symName: __ZNSt3__119__copy_trivial_implB8ue170006IP8TentacleS2_EENS_4pairIPT_PT0_EES5_S5_S7_, symObjAddr: 0x2CC4, symBinAddr: 0x100003878, symSize: 0x80 }
  - { offsetInCU: 0x6125, offset: 0x6125, size: 0x8, addend: 0x0, symName: __ZNSt3__119__constexpr_memmoveB8ue170006IP8TentacleS2_Li0EEEPT_S4_PT0_NS_15__element_countE, symObjAddr: 0x2D44, symBinAddr: 0x1000038F8, symSize: 0x64 }
  - { offsetInCU: 0x6193, offset: 0x6193, size: 0x8, addend: 0x0, symName: __ZNSt3__19make_pairB8ue170006IRPP8TentacleS3_EENS_4pairINS_18__unwrap_ref_decayIT_E4typeENS6_IT0_E4typeEEEOS7_OSA_, symObjAddr: 0x2DA8, symBinAddr: 0x10000395C, symSize: 0x38 }
  - { offsetInCU: 0x659E, offset: 0x659E, size: 0x8, addend: 0x0, symName: __ZSt28__throw_bad_array_new_lengthB8ue170006v, symObjAddr: 0x1180, symBinAddr: 0x100001D34, symSize: 0x34 }
  - { offsetInCU: 0x6A27, offset: 0x6A27, size: 0x8, addend: 0x0, symName: __ZNSt3__16vectorIP8TentacleNS_9allocatorIS2_EEE26__swap_out_circular_bufferERNS_14__split_bufferIS2_RS4_EE, symObjAddr: 0x9FC, symBinAddr: 0x1000015B0, symSize: 0x110 }
  - { offsetInCU: 0x8D4B, offset: 0x8D4B, size: 0x8, addend: 0x0, symName: _main, symObjAddr: 0x0, symBinAddr: 0x100000BB4, symSize: 0x70 }
  - { offsetInCU: 0x8E0B, offset: 0x8E0B, size: 0x8, addend: 0x0, symName: __ZN7OctopusC1Ev, symObjAddr: 0x70, symBinAddr: 0x100000C24, symSize: 0x2C }
  - { offsetInCU: 0x8E33, offset: 0x8E33, size: 0x8, addend: 0x0, symName: __ZN7OctopusC1ERKS_, symObjAddr: 0x9C, symBinAddr: 0x100000C50, symSize: 0x34 }
  - { offsetInCU: 0x8E69, offset: 0x8E69, size: 0x8, addend: 0x0, symName: __ZN7OctopusD1Ev, symObjAddr: 0xD0, symBinAddr: 0x100000C84, symSize: 0x2C }
  - { offsetInCU: 0x8E91, offset: 0x8E91, size: 0x8, addend: 0x0, symName: __ZN7OctopusC2Ev, symObjAddr: 0xFC, symBinAddr: 0x100000CB0, symSize: 0x164 }
  - { offsetInCU: 0x8EF3, offset: 0x8EF3, size: 0x8, addend: 0x0, symName: __ZNSt3__16vectorIP8TentacleNS_9allocatorIS2_EEEC1B8ue170006Ev, symObjAddr: 0x260, symBinAddr: 0x100000E14, symSize: 0x2C }
  - { offsetInCU: 0x8F1B, offset: 0x8F1B, size: 0x8, addend: 0x0, symName: __ZN8TentacleC1Ei, symObjAddr: 0x28C, symBinAddr: 0x100000E40, symSize: 0x34 }
  - { offsetInCU: 0x8F51, offset: 0x8F51, size: 0x8, addend: 0x0, symName: __ZNSt3__16vectorIP8TentacleNS_9allocatorIS2_EEE9push_backB8ue170006ERKS2_, symObjAddr: 0x2C0, symBinAddr: 0x100000E74, symSize: 0x6C }
  - { offsetInCU: 0x8F86, offset: 0x8F86, size: 0x8, addend: 0x0, symName: __ZN7Octopus7CleanupEv, symObjAddr: 0x32C, symBinAddr: 0x100000EE0, symSize: 0xA4 }
  - { offsetInCU: 0x8FF8, offset: 0x8FF8, size: 0x8, addend: 0x0, symName: __ZNSt3__16vectorIP8TentacleNS_9allocatorIS2_EEED1B8ue170006Ev, symObjAddr: 0x3DC, symBinAddr: 0x100000F90, symSize: 0x2C }
  - { offsetInCU: 0x9020, offset: 0x9020, size: 0x8, addend: 0x0, symName: __ZNSt3__16vectorIP8TentacleNS_9allocatorIS2_EEEC2B8ue170006Ev, symObjAddr: 0x408, symBinAddr: 0x100000FBC, symSize: 0x4C }
  - { offsetInCU: 0x9052, offset: 0x9052, size: 0x8, addend: 0x0, symName: __ZNSt3__117__compressed_pairIPP8TentacleNS_9allocatorIS2_EEEC1B8ue170006IDnNS_18__default_init_tagEEEOT_OT0_, symObjAddr: 0x454, symBinAddr: 0x100001008, symSize: 0x3C }
  - { offsetInCU: 0x90A8, offset: 0x90A8, size: 0x8, addend: 0x0, symName: __ZNSt3__117__compressed_pairIPP8TentacleNS_9allocatorIS2_EEEC2B8ue170006IDnNS_18__default_init_tagEEEOT_OT0_, symObjAddr: 0x490, symBinAddr: 0x100001044, symSize: 0x40 }
  - { offsetInCU: 0x90FE, offset: 0x90FE, size: 0x8, addend: 0x0, symName: __ZNSt3__122__compressed_pair_elemIPP8TentacleLi0ELb0EEC2B8ue170006IDnvEEOT_, symObjAddr: 0x4D0, symBinAddr: 0x100001084, symSize: 0x1C }
  - { offsetInCU: 0x913E, offset: 0x913E, size: 0x8, addend: 0x0, symName: __ZNSt3__122__compressed_pair_elemINS_9allocatorIP8TentacleEELi1ELb1EEC2B8ue170006ENS_18__default_init_tagE, symObjAddr: 0x4EC, symBinAddr: 0x1000010A0, symSize: 0x2C }
  - { offsetInCU: 0x9170, offset: 0x9170, size: 0x8, addend: 0x0, symName: __ZNSt3__19allocatorIP8TentacleEC2B8ue170006Ev, symObjAddr: 0x518, symBinAddr: 0x1000010CC, symSize: 0x2C }
  - { offsetInCU: 0x9198, offset: 0x9198, size: 0x8, addend: 0x0, symName: __ZNSt3__116__non_trivial_ifILb1ENS_9allocatorIP8TentacleEEEC2B8ue170006Ev, symObjAddr: 0x544, symBinAddr: 0x1000010F8, symSize: 0x14 }
  - { offsetInCU: 0x91C0, offset: 0x91C0, size: 0x8, addend: 0x0, symName: __ZN8TentacleC2Ei, symObjAddr: 0x558, symBinAddr: 0x10000110C, symSize: 0x20 }
  - { offsetInCU: 0x91F6, offset: 0x91F6, size: 0x8, addend: 0x0, symName: __ZNSt3__16vectorIP8TentacleNS_9allocatorIS2_EEE9__end_capB8ue170006Ev, symObjAddr: 0x578, symBinAddr: 0x10000112C, symSize: 0x28 }
  - { offsetInCU: 0x921A, offset: 0x921A, size: 0x8, addend: 0x0, symName: __ZNSt3__16vectorIP8TentacleNS_9allocatorIS2_EEE22__construct_one_at_endB8ue170006IJRKS2_EEEvDpOT_, symObjAddr: 0x5A0, symBinAddr: 0x100001154, symSize: 0x90 }
  - { offsetInCU: 0x9267, offset: 0x9267, size: 0x8, addend: 0x0, symName: __ZNSt3__16vectorIP8TentacleNS_9allocatorIS2_EEE21__push_back_slow_pathIRKS2_EEvOT_, symObjAddr: 0x630, symBinAddr: 0x1000011E4, symSize: 0xD8 }
  - { offsetInCU: 0x92C3, offset: 0x92C3, size: 0x8, addend: 0x0, symName: __ZNSt3__117__compressed_pairIPP8TentacleNS_9allocatorIS2_EEE5firstB8ue170006Ev, symObjAddr: 0x708, symBinAddr: 0x1000012BC, symSize: 0x24 }
  - { offsetInCU: 0x92E8, offset: 0x92E8, size: 0x8, addend: 0x0, symName: __ZNSt3__122__compressed_pair_elemIPP8TentacleLi0ELb0EE5__getB8ue170006Ev, symObjAddr: 0x72C, symBinAddr: 0x1000012E0, symSize: 0x14 }
  - { offsetInCU: 0x9324, offset: 0x9324, size: 0x8, addend: 0x0, symName: __ZNSt3__16vectorIP8TentacleNS_9allocatorIS2_EEE21_ConstructTransactionC1B8ue170006ERS5_m, symObjAddr: 0x740, symBinAddr: 0x1000012F4, symSize: 0x3C }
  - { offsetInCU: 0x936B, offset: 0x936B, size: 0x8, addend: 0x0, symName: __ZNSt3__116allocator_traitsINS_9allocatorIP8TentacleEEE9constructB8ue170006IS3_JRKS3_EvEEvRS4_PT_DpOT0_, symObjAddr: 0x77C, symBinAddr: 0x100001330, symSize: 0x34 }
  - { offsetInCU: 0x93C1, offset: 0x93C1, size: 0x8, addend: 0x0, symName: __ZNSt3__16vectorIP8TentacleNS_9allocatorIS2_EEE7__allocB8ue170006Ev, symObjAddr: 0x7B0, symBinAddr: 0x100001364, symSize: 0x28 }
  - { offsetInCU: 0x93E5, offset: 0x93E5, size: 0x8, addend: 0x0, symName: __ZNSt3__16vectorIP8TentacleNS_9allocatorIS2_EEE21_ConstructTransactionD1B8ue170006Ev, symObjAddr: 0x7EC, symBinAddr: 0x1000013A0, symSize: 0x2C }
  - { offsetInCU: 0x940D, offset: 0x940D, size: 0x8, addend: 0x0, symName: __ZNSt3__16vectorIP8TentacleNS_9allocatorIS2_EEE21_ConstructTransactionC2B8ue170006ERS5_m, symObjAddr: 0x818, symBinAddr: 0x1000013CC, symSize: 0x44 }
  - { offsetInCU: 0x9454, offset: 0x9454, size: 0x8, addend: 0x0, symName: __ZNSt3__19allocatorIP8TentacleE9constructB8ue170006IS2_JRKS2_EEEvPT_DpOT0_, symObjAddr: 0x85C, symBinAddr: 0x100001410, symSize: 0x28 }
  - { offsetInCU: 0x94A7, offset: 0x94A7, size: 0x8, addend: 0x0, symName: __ZNSt3__117__compressed_pairIPP8TentacleNS_9allocatorIS2_EEE6secondB8ue170006Ev, symObjAddr: 0x884, symBinAddr: 0x100001438, symSize: 0x24 }
  - { offsetInCU: 0x94CC, offset: 0x94CC, size: 0x8, addend: 0x0, symName: __ZNSt3__122__compressed_pair_elemINS_9allocatorIP8TentacleEELi1ELb1EE5__getB8ue170006Ev, symObjAddr: 0x8A8, symBinAddr: 0x10000145C, symSize: 0x14 }
  - { offsetInCU: 0x94EF, offset: 0x94EF, size: 0x8, addend: 0x0, symName: __ZNSt3__16vectorIP8TentacleNS_9allocatorIS2_EEE21_ConstructTransactionD2B8ue170006Ev, symObjAddr: 0x8BC, symBinAddr: 0x100001470, symSize: 0x20 }
  - { offsetInCU: 0x9517, offset: 0x9517, size: 0x8, addend: 0x0, symName: __ZNKSt3__16vectorIP8TentacleNS_9allocatorIS2_EEE11__recommendB8ue170006Em, symObjAddr: 0x8DC, symBinAddr: 0x100001490, symSize: 0xB4 }
  - { offsetInCU: 0x956B, offset: 0x956B, size: 0x8, addend: 0x0, symName: __ZNKSt3__16vectorIP8TentacleNS_9allocatorIS2_EEE4sizeB8ue170006Ev, symObjAddr: 0x990, symBinAddr: 0x100001544, symSize: 0x28 }
  - { offsetInCU: 0x958F, offset: 0x958F, size: 0x8, addend: 0x0, symName: __ZNSt3__114__split_bufferIP8TentacleRNS_9allocatorIS2_EEEC1EmmS5_, symObjAddr: 0x9B8, symBinAddr: 0x10000156C, symSize: 0x44 }
  - { offsetInCU: 0x95E4, offset: 0x95E4, size: 0x8, addend: 0x0, symName: __ZNSt3__114__split_bufferIP8TentacleRNS_9allocatorIS2_EEED1Ev, symObjAddr: 0xB0C, symBinAddr: 0x1000016C0, symSize: 0x2C }
  - { offsetInCU: 0x960E, offset: 0x960E, size: 0x8, addend: 0x0, symName: __ZNKSt3__16vectorIP8TentacleNS_9allocatorIS2_EEE8max_sizeEv, symObjAddr: 0xB38, symBinAddr: 0x1000016EC, symSize: 0x60 }
  - { offsetInCU: 0x9634, offset: 0x9634, size: 0x8, addend: 0x0, symName: __ZNKSt3__16vectorIP8TentacleNS_9allocatorIS2_EEE20__throw_length_errorB8ue170006Ev, symObjAddr: 0xB98, symBinAddr: 0x10000174C, symSize: 0x1C }
  - { offsetInCU: 0x9658, offset: 0x9658, size: 0x8, addend: 0x0, symName: __ZNKSt3__16vectorIP8TentacleNS_9allocatorIS2_EEE8capacityB8ue170006Ev, symObjAddr: 0xBB4, symBinAddr: 0x100001768, symSize: 0x40 }
  - { offsetInCU: 0x9687, offset: 0x9687, size: 0x8, addend: 0x0, symName: __ZNSt3__116allocator_traitsINS_9allocatorIP8TentacleEEE8max_sizeB8ue170006IS4_vEEmRKS4_, symObjAddr: 0xC4C, symBinAddr: 0x100001800, symSize: 0x24 }
  - { offsetInCU: 0x96B4, offset: 0x96B4, size: 0x8, addend: 0x0, symName: __ZNKSt3__16vectorIP8TentacleNS_9allocatorIS2_EEE7__allocB8ue170006Ev, symObjAddr: 0xC70, symBinAddr: 0x100001824, symSize: 0x28 }
  - { offsetInCU: 0x96D9, offset: 0x96D9, size: 0x8, addend: 0x0, symName: __ZNSt3__114numeric_limitsIlE3maxB8ue170006Ev, symObjAddr: 0xC98, symBinAddr: 0x10000184C, symSize: 0x14 }
  - { offsetInCU: 0x9701, offset: 0x9701, size: 0x8, addend: 0x0, symName: __ZNKSt3__16__lessIvvEclB8ue170006ImmEEbRKT_RKT0_, symObjAddr: 0xD00, symBinAddr: 0x1000018B4, symSize: 0x34 }
  - { offsetInCU: 0x9753, offset: 0x9753, size: 0x8, addend: 0x0, symName: __ZNKSt3__19allocatorIP8TentacleE8max_sizeB8ue170006Ev, symObjAddr: 0xD34, symBinAddr: 0x1000018E8, symSize: 0x14 }
  - { offsetInCU: 0x9776, offset: 0x9776, size: 0x8, addend: 0x0, symName: __ZNKSt3__117__compressed_pairIPP8TentacleNS_9allocatorIS2_EEE6secondB8ue170006Ev, symObjAddr: 0xD48, symBinAddr: 0x1000018FC, symSize: 0x24 }
  - { offsetInCU: 0x979B, offset: 0x979B, size: 0x8, addend: 0x0, symName: __ZNKSt3__122__compressed_pair_elemINS_9allocatorIP8TentacleEELi1ELb1EE5__getB8ue170006Ev, symObjAddr: 0xD6C, symBinAddr: 0x100001920, symSize: 0x14 }
  - { offsetInCU: 0x97BF, offset: 0x97BF, size: 0x8, addend: 0x0, symName: __ZNSt3__123__libcpp_numeric_limitsIlLb1EE3maxB8ue170006Ev, symObjAddr: 0xD80, symBinAddr: 0x100001934, symSize: 0x8 }
  - { offsetInCU: 0x97D2, offset: 0x97D2, size: 0x8, addend: 0x0, symName: __ZNSt12length_errorC1B8ue170006EPKc, symObjAddr: 0xDEC, symBinAddr: 0x1000019A0, symSize: 0x34 }
  - { offsetInCU: 0x9808, offset: 0x9808, size: 0x8, addend: 0x0, symName: __ZNSt12length_errorC2B8ue170006EPKc, symObjAddr: 0xE20, symBinAddr: 0x1000019D4, symSize: 0x4C }
  - { offsetInCU: 0x983E, offset: 0x983E, size: 0x8, addend: 0x0, symName: __ZNKSt3__16vectorIP8TentacleNS_9allocatorIS2_EEE9__end_capB8ue170006Ev, symObjAddr: 0xE6C, symBinAddr: 0x100001A20, symSize: 0x28 }
  - { offsetInCU: 0x9862, offset: 0x9862, size: 0x8, addend: 0x0, symName: __ZNKSt3__117__compressed_pairIPP8TentacleNS_9allocatorIS2_EEE5firstB8ue170006Ev, symObjAddr: 0xE94, symBinAddr: 0x100001A48, symSize: 0x24 }
  - { offsetInCU: 0x9887, offset: 0x9887, size: 0x8, addend: 0x0, symName: __ZNKSt3__122__compressed_pair_elemIPP8TentacleLi0ELb0EE5__getB8ue170006Ev, symObjAddr: 0xEB8, symBinAddr: 0x100001A6C, symSize: 0x14 }
  - { offsetInCU: 0x98AB, offset: 0x98AB, size: 0x8, addend: 0x0, symName: __ZNSt3__114__split_bufferIP8TentacleRNS_9allocatorIS2_EEEC2EmmS5_, symObjAddr: 0xF20, symBinAddr: 0x100001AD4, symSize: 0xD4 }
  - { offsetInCU: 0x991C, offset: 0x991C, size: 0x8, addend: 0x0, symName: __ZNSt3__117__compressed_pairIPP8TentacleRNS_9allocatorIS2_EEEC1B8ue170006IDnS6_EEOT_OT0_, symObjAddr: 0xFF4, symBinAddr: 0x100001BA8, symSize: 0x3C }
  - { offsetInCU: 0x9972, offset: 0x9972, size: 0x8, addend: 0x0, symName: __ZNSt3__114__split_bufferIP8TentacleRNS_9allocatorIS2_EEE7__allocB8ue170006Ev, symObjAddr: 0x1070, symBinAddr: 0x100001C24, symSize: 0x28 }
  - { offsetInCU: 0x9996, offset: 0x9996, size: 0x8, addend: 0x0, symName: __ZNSt3__114__split_bufferIP8TentacleRNS_9allocatorIS2_EEE9__end_capB8ue170006Ev, symObjAddr: 0x1098, symBinAddr: 0x100001C4C, symSize: 0x28 }
  - { offsetInCU: 0x99BA, offset: 0x99BA, size: 0x8, addend: 0x0, symName: __ZNSt3__117__compressed_pairIPP8TentacleRNS_9allocatorIS2_EEEC2B8ue170006IDnS6_EEOT_OT0_, symObjAddr: 0x10C0, symBinAddr: 0x100001C74, symSize: 0x48 }
  - { offsetInCU: 0x9A10, offset: 0x9A10, size: 0x8, addend: 0x0, symName: __ZNSt3__122__compressed_pair_elemIRNS_9allocatorIP8TentacleEELi1ELb0EEC2B8ue170006IS5_vEEOT_, symObjAddr: 0x1108, symBinAddr: 0x100001CBC, symSize: 0x20 }
  - { offsetInCU: 0x9A50, offset: 0x9A50, size: 0x8, addend: 0x0, symName: __ZNSt3__19allocatorIP8TentacleE8allocateB8ue170006Em, symObjAddr: 0x1128, symBinAddr: 0x100001CDC, symSize: 0x58 }
  - { offsetInCU: 0x9A82, offset: 0x9A82, size: 0x8, addend: 0x0, symName: __ZNSt3__117__compressed_pairIPP8TentacleRNS_9allocatorIS2_EEE6secondB8ue170006Ev, symObjAddr: 0x1284, symBinAddr: 0x100001E38, symSize: 0x28 }
  - { offsetInCU: 0x9AA7, offset: 0x9AA7, size: 0x8, addend: 0x0, symName: __ZNSt3__122__compressed_pair_elemIRNS_9allocatorIP8TentacleEELi1ELb0EE5__getB8ue170006Ev, symObjAddr: 0x12AC, symBinAddr: 0x100001E60, symSize: 0x18 }
  - { offsetInCU: 0x9ACA, offset: 0x9ACA, size: 0x8, addend: 0x0, symName: __ZNSt3__117__compressed_pairIPP8TentacleRNS_9allocatorIS2_EEE5firstB8ue170006Ev, symObjAddr: 0x12C4, symBinAddr: 0x100001E78, symSize: 0x24 }
  - { offsetInCU: 0x9AEE, offset: 0x9AEE, size: 0x8, addend: 0x0, symName: __ZNKSt3__16vectorIP8TentacleNS_9allocatorIS2_EEE17__annotate_deleteB8ue170006Ev, symObjAddr: 0x12E8, symBinAddr: 0x100001E9C, symSize: 0xB8 }
  - { offsetInCU: 0x9B12, offset: 0x9B12, size: 0x8, addend: 0x0, symName: __ZNSt3__116reverse_iteratorIPP8TentacleEC1B8ue170006ES3_, symObjAddr: 0x1418, symBinAddr: 0x100001FCC, symSize: 0x34 }
  - { offsetInCU: 0x9B49, offset: 0x9B49, size: 0x8, addend: 0x0, symName: __ZNKSt3__116reverse_iteratorIPP8TentacleE4baseB8ue170006Ev, symObjAddr: 0x144C, symBinAddr: 0x100002000, symSize: 0x18 }
  - { offsetInCU: 0x9B6C, offset: 0x9B6C, size: 0x8, addend: 0x0, symName: __ZNKSt3__16vectorIP8TentacleNS_9allocatorIS2_EEE14__annotate_newB8ue170006Em, symObjAddr: 0x14A0, symBinAddr: 0x100002054, symSize: 0xAC }
  - { offsetInCU: 0x9BA0, offset: 0x9BA0, size: 0x8, addend: 0x0, symName: __ZNKSt3__16vectorIP8TentacleNS_9allocatorIS2_EEE31__annotate_contiguous_containerB8ue170006EPKvS7_S7_S7_, symObjAddr: 0x154C, symBinAddr: 0x100002100, symSize: 0x20 }
  - { offsetInCU: 0x9BEF, offset: 0x9BEF, size: 0x8, addend: 0x0, symName: __ZNKSt3__16vectorIP8TentacleNS_9allocatorIS2_EEE4dataB8ue170006Ev, symObjAddr: 0x156C, symBinAddr: 0x100002120, symSize: 0x28 }
  - { offsetInCU: 0x9C36, offset: 0x9C36, size: 0x8, addend: 0x0, symName: __ZNKSt3__111__move_loopINS_17_ClassicAlgPolicyEEclB8ue170006INS_16reverse_iteratorIPP8TentacleEES8_S8_EENS_4pairIT_T1_EESA_T0_SB_, symObjAddr: 0x1884, symBinAddr: 0x100002438, symSize: 0xA0 }
  - { offsetInCU: 0x9CA5, offset: 0x9CA5, size: 0x8, addend: 0x0, symName: __ZNSt3__18_IterOpsINS_17_ClassicAlgPolicyEE11__iter_moveB8ue170006IRNS_16reverse_iteratorIPP8TentacleEEEENS_9enable_ifIXsr12is_referenceIDTdeclsr3stdE7declvalIRT_EEEEE5valueEDTclsr3stdE4movedeclsr3stdE7declvalISC_EEEEE4typeEOSB_, symObjAddr: 0x1AB8, symBinAddr: 0x10000266C, symSize: 0x28 }
  - { offsetInCU: 0x9CD1, offset: 0x9CD1, size: 0x8, addend: 0x0, symName: __ZNKSt3__116reverse_iteratorIPP8TentacleEdeB8ue170006Ev, symObjAddr: 0x1AE0, symBinAddr: 0x100002694, symSize: 0x28 }
  - { offsetInCU: 0x9D03, offset: 0x9D03, size: 0x8, addend: 0x0, symName: __ZNSt3__116reverse_iteratorIPP8TentacleEppB8ue170006Ev, symObjAddr: 0x1B08, symBinAddr: 0x1000026BC, symSize: 0x20 }
  - { offsetInCU: 0x9D27, offset: 0x9D27, size: 0x8, addend: 0x0, symName: __ZNSt3__18_IterOpsINS_17_ClassicAlgPolicyEE25__validate_iter_referenceB8ue170006IRNS_16reverse_iteratorIPP8TentacleEEEEvv, symObjAddr: 0x1B28, symBinAddr: 0x1000026DC, symSize: 0x4 }
  - { offsetInCU: 0x9D45, offset: 0x9D45, size: 0x8, addend: 0x0, symName: __ZNSt3__118__unwrap_iter_implINS_16reverse_iteratorIPP8TentacleEELb0EE8__unwrapB8ue170006ES5_, symObjAddr: 0x1B2C, symBinAddr: 0x1000026E0, symSize: 0x24 }
  - { offsetInCU: 0x9D6C, offset: 0x9D6C, size: 0x8, addend: 0x0, symName: __ZNSt3__14pairINS_16reverse_iteratorIPP8TentacleEES5_EC1B8ue170006IS5_S5_LPv0EEEOT_OT0_, symObjAddr: 0x1B50, symBinAddr: 0x100002704, symSize: 0x3C }
  - { offsetInCU: 0x9DC8, offset: 0x9DC8, size: 0x8, addend: 0x0, symName: __ZNSt3__14pairINS_16reverse_iteratorIPP8TentacleEES5_EC2B8ue170006IS5_S5_LPv0EEEOT_OT0_, symObjAddr: 0x1B8C, symBinAddr: 0x100002740, symSize: 0x34 }
  - { offsetInCU: 0x9E25, offset: 0x9E25, size: 0x8, addend: 0x0, symName: __ZNSt3__118__unwrap_iter_implINS_16reverse_iteratorIPP8TentacleEELb0EE8__rewrapB8ue170006ES5_S5_, symObjAddr: 0x1BC0, symBinAddr: 0x100002774, symSize: 0x2C }
  - { offsetInCU: 0x9E51, offset: 0x9E51, size: 0x8, addend: 0x0, symName: __ZNSt3__116reverse_iteratorIPP8TentacleEC2B8ue170006ES3_, symObjAddr: 0x1BEC, symBinAddr: 0x1000027A0, symSize: 0x28 }
  - { offsetInCU: 0x9E88, offset: 0x9E88, size: 0x8, addend: 0x0, symName: __ZNSt3__114__split_bufferIP8TentacleRNS_9allocatorIS2_EEED2Ev, symObjAddr: 0x1C14, symBinAddr: 0x1000027C8, symSize: 0x8C }
  - { offsetInCU: 0x9EB2, offset: 0x9EB2, size: 0x8, addend: 0x0, symName: __ZNSt3__114__split_bufferIP8TentacleRNS_9allocatorIS2_EEE5clearB8ue170006Ev, symObjAddr: 0x1CA0, symBinAddr: 0x100002854, symSize: 0x28 }
  - { offsetInCU: 0x9ED7, offset: 0x9ED7, size: 0x8, addend: 0x0, symName: __ZNSt3__116allocator_traitsINS_9allocatorIP8TentacleEEE10deallocateB8ue170006ERS4_PS3_m, symObjAddr: 0x1CC8, symBinAddr: 0x10000287C, symSize: 0x34 }
  - { offsetInCU: 0x9F18, offset: 0x9F18, size: 0x8, addend: 0x0, symName: __ZNKSt3__114__split_bufferIP8TentacleRNS_9allocatorIS2_EEE8capacityB8ue170006Ev, symObjAddr: 0x1CFC, symBinAddr: 0x1000028B0, symSize: 0x40 }
  - { offsetInCU: 0x9F3C, offset: 0x9F3C, size: 0x8, addend: 0x0, symName: __ZNSt3__114__split_bufferIP8TentacleRNS_9allocatorIS2_EEE17__destruct_at_endB8ue170006EPS2_, symObjAddr: 0x1D3C, symBinAddr: 0x1000028F0, symSize: 0x2C }
  - { offsetInCU: 0x9F6E, offset: 0x9F6E, size: 0x8, addend: 0x0, symName: __ZNSt3__114__split_bufferIP8TentacleRNS_9allocatorIS2_EEE17__destruct_at_endB8ue170006EPS2_NS_17integral_constantIbLb0EEE, symObjAddr: 0x1D68, symBinAddr: 0x10000291C, symSize: 0x80 }
  - { offsetInCU: 0x9FAD, offset: 0x9FAD, size: 0x8, addend: 0x0, symName: __ZNSt3__116allocator_traitsINS_9allocatorIP8TentacleEEE7destroyB8ue170006IS3_vEEvRS4_PT_, symObjAddr: 0x1DE8, symBinAddr: 0x10000299C, symSize: 0x2C }
  - { offsetInCU: 0x9FEA, offset: 0x9FEA, size: 0x8, addend: 0x0, symName: __ZNSt3__19allocatorIP8TentacleE7destroyB8ue170006EPS2_, symObjAddr: 0x1E14, symBinAddr: 0x1000029C8, symSize: 0x14 }
  - { offsetInCU: 0xA01B, offset: 0xA01B, size: 0x8, addend: 0x0, symName: __ZNSt3__19allocatorIP8TentacleE10deallocateB8ue170006EPS2_m, symObjAddr: 0x1E28, symBinAddr: 0x1000029DC, symSize: 0x40 }
  - { offsetInCU: 0xA05B, offset: 0xA05B, size: 0x8, addend: 0x0, symName: __ZNKSt3__114__split_bufferIP8TentacleRNS_9allocatorIS2_EEE9__end_capB8ue170006Ev, symObjAddr: 0x1F70, symBinAddr: 0x100002B24, symSize: 0x28 }
  - { offsetInCU: 0xA07F, offset: 0xA07F, size: 0x8, addend: 0x0, symName: __ZNKSt3__117__compressed_pairIPP8TentacleRNS_9allocatorIS2_EEE5firstB8ue170006Ev, symObjAddr: 0x1F98, symBinAddr: 0x100002B4C, symSize: 0x24 }
  - { offsetInCU: 0xA0A3, offset: 0xA0A3, size: 0x8, addend: 0x0, symName: __ZNSt3__16vectorIP8TentacleNS_9allocatorIS2_EEE5beginB8ue170006Ev, symObjAddr: 0x1FBC, symBinAddr: 0x100002B70, symSize: 0x30 }
  - { offsetInCU: 0xA0C9, offset: 0xA0C9, size: 0x8, addend: 0x0, symName: __ZNSt3__16vectorIP8TentacleNS_9allocatorIS2_EEE3endB8ue170006Ev, symObjAddr: 0x1FEC, symBinAddr: 0x100002BA0, symSize: 0x30 }
  - { offsetInCU: 0xA0F0, offset: 0xA0F0, size: 0x8, addend: 0x0, symName: __ZNKSt3__111__wrap_iterIPP8TentacleEdeB8ue170006Ev, symObjAddr: 0x2050, symBinAddr: 0x100002C04, symSize: 0x18 }
  - { offsetInCU: 0xA114, offset: 0xA114, size: 0x8, addend: 0x0, symName: __ZNSt3__111__wrap_iterIPP8TentacleEppB8ue170006Ev, symObjAddr: 0x2068, symBinAddr: 0x100002C1C, symSize: 0x20 }
  - { offsetInCU: 0xA137, offset: 0xA137, size: 0x8, addend: 0x0, symName: __ZNSt3__16vectorIP8TentacleNS_9allocatorIS2_EEE5clearB8ue170006Ev, symObjAddr: 0x2088, symBinAddr: 0x100002C3C, symSize: 0x44 }
  - { offsetInCU: 0xA16A, offset: 0xA16A, size: 0x8, addend: 0x0, symName: __ZNSt3__16vectorIP8TentacleNS_9allocatorIS2_EEE11__make_iterB8ue170006EPS2_, symObjAddr: 0x20CC, symBinAddr: 0x100002C80, symSize: 0x30 }
  - { offsetInCU: 0xA19D, offset: 0xA19D, size: 0x8, addend: 0x0, symName: __ZNSt3__111__wrap_iterIPP8TentacleEC1B8ue170006ES3_, symObjAddr: 0x20FC, symBinAddr: 0x100002CB0, symSize: 0x34 }
  - { offsetInCU: 0xA1D3, offset: 0xA1D3, size: 0x8, addend: 0x0, symName: __ZNSt3__111__wrap_iterIPP8TentacleEC2B8ue170006ES3_, symObjAddr: 0x2130, symBinAddr: 0x100002CE4, symSize: 0x20 }
  - { offsetInCU: 0xA20A, offset: 0xA20A, size: 0x8, addend: 0x0, symName: __ZNKSt3__111__wrap_iterIPP8TentacleE4baseB8ue170006Ev, symObjAddr: 0x2198, symBinAddr: 0x100002D4C, symSize: 0x18 }
  - { offsetInCU: 0xA22D, offset: 0xA22D, size: 0x8, addend: 0x0, symName: __ZNSt3__16vectorIP8TentacleNS_9allocatorIS2_EEE7__clearB8ue170006Ev, symObjAddr: 0x21B0, symBinAddr: 0x100002D64, symSize: 0x28 }
  - { offsetInCU: 0xA251, offset: 0xA251, size: 0x8, addend: 0x0, symName: __ZNKSt3__16vectorIP8TentacleNS_9allocatorIS2_EEE17__annotate_shrinkB8ue170006Em, symObjAddr: 0x21D8, symBinAddr: 0x100002D8C, symSize: 0xB4 }
  - { offsetInCU: 0xA284, offset: 0xA284, size: 0x8, addend: 0x0, symName: __ZNSt3__16vectorIP8TentacleNS_9allocatorIS2_EEE22__base_destruct_at_endB8ue170006EPS2_, symObjAddr: 0x228C, symBinAddr: 0x100002E40, symSize: 0x8C }
  - { offsetInCU: 0xA2C6, offset: 0xA2C6, size: 0x8, addend: 0x0, symName: __ZNSt3__16vectorIP8TentacleNS_9allocatorIS2_EEED2B8ue170006Ev, symObjAddr: 0x2318, symBinAddr: 0x100002ECC, symSize: 0x44 }
  - { offsetInCU: 0xA2EE, offset: 0xA2EE, size: 0x8, addend: 0x0, symName: __ZNSt3__16vectorIP8TentacleNS_9allocatorIS2_EEE16__destroy_vectorC1B8ue170006ERS5_, symObjAddr: 0x235C, symBinAddr: 0x100002F10, symSize: 0x34 }
  - { offsetInCU: 0xA325, offset: 0xA325, size: 0x8, addend: 0x0, symName: __ZNSt3__16vectorIP8TentacleNS_9allocatorIS2_EEE16__destroy_vectorclB8ue170006Ev, symObjAddr: 0x2390, symBinAddr: 0x100002F44, symSize: 0x90 }
  - { offsetInCU: 0xA349, offset: 0xA349, size: 0x8, addend: 0x0, symName: __ZNSt3__16vectorIP8TentacleNS_9allocatorIS2_EEE16__destroy_vectorC2B8ue170006ERS5_, symObjAddr: 0x2420, symBinAddr: 0x100002FD4, symSize: 0x20 }
  - { offsetInCU: 0xA380, offset: 0xA380, size: 0x8, addend: 0x0, symName: __ZN7OctopusC2ERKS_, symObjAddr: 0x2440, symBinAddr: 0x100002FF4, symSize: 0x34 }
  - { offsetInCU: 0xA3B7, offset: 0xA3B7, size: 0x8, addend: 0x0, symName: __ZNSt3__16vectorIP8TentacleNS_9allocatorIS2_EEEC1ERKS5_, symObjAddr: 0x2474, symBinAddr: 0x100003028, symSize: 0x34 }
  - { offsetInCU: 0xA3F1, offset: 0xA3F1, size: 0x8, addend: 0x0, symName: __ZNSt3__16vectorIP8TentacleNS_9allocatorIS2_EEEC2ERKS5_, symObjAddr: 0x24A8, symBinAddr: 0x10000305C, symSize: 0x94 }
  - { offsetInCU: 0xA42B, offset: 0xA42B, size: 0x8, addend: 0x0, symName: __ZNSt3__116allocator_traitsINS_9allocatorIP8TentacleEEE37select_on_container_copy_constructionB8ue170006IS4_vvEES4_RKS4_, symObjAddr: 0x253C, symBinAddr: 0x1000030F0, symSize: 0x10 }
  - { offsetInCU: 0xA45E, offset: 0xA45E, size: 0x8, addend: 0x0, symName: __ZNSt3__117__compressed_pairIPP8TentacleNS_9allocatorIS2_EEEC1B8ue170006IDnS5_EEOT_OT0_, symObjAddr: 0x254C, symBinAddr: 0x100003100, symSize: 0x3C }
  - { offsetInCU: 0xA4B4, offset: 0xA4B4, size: 0x8, addend: 0x0, symName: __ZNSt3__16vectorIP8TentacleNS_9allocatorIS2_EEE16__init_with_sizeB8ue170006IPS2_S7_EEvT_T0_m, symObjAddr: 0x2588, symBinAddr: 0x10000313C, symSize: 0xB8 }
  - { offsetInCU: 0xA526, offset: 0xA526, size: 0x8, addend: 0x0, symName: __ZNSt3__117__compressed_pairIPP8TentacleNS_9allocatorIS2_EEEC2B8ue170006IDnS5_EEOT_OT0_, symObjAddr: 0x2640, symBinAddr: 0x1000031F4, symSize: 0x44 }
  - { offsetInCU: 0xA57C, offset: 0xA57C, size: 0x8, addend: 0x0, symName: __ZNSt3__122__compressed_pair_elemINS_9allocatorIP8TentacleEELi1ELb1EEC2B8ue170006IS4_vEEOT_, symObjAddr: 0x2684, symBinAddr: 0x100003238, symSize: 0x18 }
  - { offsetInCU: 0xA5BC, offset: 0xA5BC, size: 0x8, addend: 0x0, symName: __ZNSt3__16vectorIP8TentacleNS_9allocatorIS2_EEE11__vallocateB8ue170006Em, symObjAddr: 0x26DC, symBinAddr: 0x100003290, symSize: 0xAC }
  - { offsetInCU: 0xA5FE, offset: 0xA5FE, size: 0x8, addend: 0x0, symName: __ZNSt3__16vectorIP8TentacleNS_9allocatorIS2_EEE18__construct_at_endIPS2_S7_EEvT_T0_m, symObjAddr: 0x2788, symBinAddr: 0x10000333C, symSize: 0x8C }
  - { offsetInCU: 0xA673, offset: 0xA673, size: 0x8, addend: 0x0, symName: __ZNSt3__128__exception_guard_exceptionsINS_6vectorIP8TentacleNS_9allocatorIS3_EEE16__destroy_vectorEE10__completeB8ue170006Ev, symObjAddr: 0x2814, symBinAddr: 0x1000033C8, symSize: 0x1C }
  - { offsetInCU: 0xA696, offset: 0xA696, size: 0x8, addend: 0x0, symName: __ZNSt3__128__exception_guard_exceptionsINS_6vectorIP8TentacleNS_9allocatorIS3_EEE16__destroy_vectorEED1B8ue170006Ev, symObjAddr: 0x2830, symBinAddr: 0x1000033E4, symSize: 0x2C }
  - { offsetInCU: 0xA6BE, offset: 0xA6BE, size: 0x8, addend: 0x0, symName: __ZNSt3__128__exception_guard_exceptionsINS_6vectorIP8TentacleNS_9allocatorIS3_EEE16__destroy_vectorEEC1B8ue170006ES7_, symObjAddr: 0x285C, symBinAddr: 0x100003410, symSize: 0x34 }
  - { offsetInCU: 0xA6F4, offset: 0xA6F4, size: 0x8, addend: 0x0, symName: __ZNSt3__128__exception_guard_exceptionsINS_6vectorIP8TentacleNS_9allocatorIS3_EEE16__destroy_vectorEEC2B8ue170006ES7_, symObjAddr: 0x2890, symBinAddr: 0x100003444, symSize: 0x24 }
  - { offsetInCU: 0xA748, offset: 0xA748, size: 0x8, addend: 0x0, symName: __ZNSt3__14pairIPP8TentacleS3_EC1B8ue170006IS3_S3_LPv0EEEOT_OT0_, symObjAddr: 0x2A64, symBinAddr: 0x100003618, symSize: 0x3C }
  - { offsetInCU: 0xA7A4, offset: 0xA7A4, size: 0x8, addend: 0x0, symName: __ZNSt3__14pairIPP8TentacleS3_EC2B8ue170006IS3_S3_LPv0EEEOT_OT0_, symObjAddr: 0x2AA0, symBinAddr: 0x100003654, symSize: 0x34 }
  - { offsetInCU: 0xA80A, offset: 0xA80A, size: 0x8, addend: 0x0, symName: __ZNKSt3__114__copy_trivialclB8ue170006IP8TentacleS3_Li0EEENS_4pairIPT_PT0_EES6_S6_S8_, symObjAddr: 0x2C50, symBinAddr: 0x100003804, symSize: 0x48 }
  - { offsetInCU: 0xA870, offset: 0xA870, size: 0x8, addend: 0x0, symName: __ZNSt3__14pairIPP8TentacleS3_EC1B8ue170006IRS3_S3_LPv0EEEOT_OT0_, symObjAddr: 0x2DE0, symBinAddr: 0x100003994, symSize: 0x3C }
  - { offsetInCU: 0xA8CC, offset: 0xA8CC, size: 0x8, addend: 0x0, symName: __ZNSt3__14pairIPP8TentacleS3_EC2B8ue170006IRS3_S3_LPv0EEEOT_OT0_, symObjAddr: 0x2E1C, symBinAddr: 0x1000039D0, symSize: 0x34 }
  - { offsetInCU: 0xA929, offset: 0xA929, size: 0x8, addend: 0x0, symName: __ZNSt3__118__unwrap_iter_implIPP8TentacleLb1EE8__unwrapB8ue170006ES3_, symObjAddr: 0x2E50, symBinAddr: 0x100003A04, symSize: 0x24 }
  - { offsetInCU: 0xA94C, offset: 0xA94C, size: 0x8, addend: 0x0, symName: __ZNSt3__118__unwrap_iter_implIPP8TentacleLb1EE8__rewrapB8ue170006ES3_S3_, symObjAddr: 0x2E74, symBinAddr: 0x100003A28, symSize: 0x50 }
  - { offsetInCU: 0xA97C, offset: 0xA97C, size: 0x8, addend: 0x0, symName: __ZNSt3__128__exception_guard_exceptionsINS_6vectorIP8TentacleNS_9allocatorIS3_EEE16__destroy_vectorEED2B8ue170006Ev, symObjAddr: 0x2EC4, symBinAddr: 0x100003A78, symSize: 0x48 }
  - { offsetInCU: 0xA9A4, offset: 0xA9A4, size: 0x8, addend: 0x0, symName: __ZN7OctopusD2Ev, symObjAddr: 0x2F0C, symBinAddr: 0x100003AC0, symSize: 0x34 }
...
